(lp0
I-62
aI75
aI-10
aI3
aI-71
aI4
aI-98
aI70
aI-93
aI71
aI-32
aI-79
aI83
aI-58
aI-12
aI-29
aI-18
aI-50
aI-22
aI99
aI25
aI97
aI-94
aI-16
aI-82
aI-83
aI37
aI81
aI15
aI60
aI-73
aI87
aI-3
aI95
aI-39
aI-57
aI-50
aI-8
aI70
aI-27
aI44
aI-100
aI-1
aI-97
aI79
aI-6
aI38
aI-34
aI-10
aI83
aI28
aI91
aI72
aI-65
aI12
aI75
aI81
aI-14
aI60
aI44
aI-76
aI-56
aI14
aI-81
aI31
aI-41
aI-16
aI51
aI100
aI39
aI-25
aI25
aI42
aI-3
aI-95
aI71
aI-72
aI-12
aI-68
aI93
aI-2
aI0
aI31
aI-23
aI-86
aI-29
aI61
aI-3
aI-6
aI84
aI-31
aI-50
aI-79
aI-73
aI-23
aI-18
aI-71
aI74
aI71
aI-28
aI-36
aI3
aI-82
aI-58
aI-53
aI45
aI-7
aI-34
aI-1
aI-78
aI42
aI-86
aI87
aI-69
aI-1
aI22
aI30
aI55
aI30
aI-54
aI-58
aI28
aI70
aI-53
aI66
aI-88
aI71
aI-65
aI81
aI-33
aI-17
aI85
aI27
aI-79
aI55
aI-54
aI-98
aI47
aI-97
aI46
aI66
aI7
aI68
aI37
aI-66
aI-58
aI98
aI-25
aI4
aI88
aI-48
aI-1
aI-62
aI46
aI-96
aI52
aI-94
aI-66
aI63
aI-13
aI-91
aI94
aI49
aI-97
aI-18
aI-74
aI61
aI57
aI-23
aI83
aI76
aI2
aI51
aI73
aI14
aI15
aI-23
aI-30
aI91
aI6
aI45
aI-22
aI-4
aI-6
aI36
aI10
aI-46
aI-52
aI-44
aI-3
aI96
aI-61
aI49
aI-9
aI-84
aI-66
aI58
aI12
aI20
aI94
aI-17
aI-64
aI-39
aI91
aI-47
aI-69
aI-98
aI58
aI-47
aI100
aI-35
aI-99
aI-25
aI-72
aI-19
aI-45
aI-37
aI16
aI-4
aI68
aI5
aI-31
aI92
aI-75
aI97
aI69
aI-96
aI-41
aI74
aI-17
aI-57
aI-2
aI84
aI-97
aI-49
aI38
aI52
aI81
aI22
aI-65
aI-40
aI-50
aI-38
aI-52
aI8
aI-26
aI-100
aI48
aI57
aI33
aI-59
aI-62
aI35
aI5
aI36
aI-29
aI83
aI-45
aI-11
aI29
aI80
aI18
aI27
aI81
aI-96
aI-59
aI-45
aI16
aI-14
aI8
aI74
aI-16
aI32
aI67
aI21
aI46
aI58
aI-66
aI18
aI34
aI43
aI8
aI-86
aI-14
aI94
aI-69
aI-49
aI-19
aI0
aI49
aI96
aI-17
aI-45
aI41
aI80
aI-39
aI30
aI65
aI-18
aI26
aI-83
aI-66
aI48
aI73
aI22
aI75
aI34
aI-58
aI5
aI18
aI94
aI-8
aI-43
aI85
aI-50
aI97
aI-9
aI-100
aI-15
aI10
aI-89
aI-18
aI66
aI26
aI41
aI-63
aI56
aI-30
aI-17
aI-90
aI75
aI-86
aI-64
aI24
aI14
aI-99
aI-14
aI-79
aI-29
aI67
aI-50
aI-34
aI-85
aI89
aI57
aI-22
aI-97
aI56
aI34
aI-56
aI9
aI-88
aI-52
aI-57
aI-86
aI-3
aI57
aI-44
aI22
aI46
aI13
aI43
aI18
aI-80
aI-10
aI39
aI29
aI-57
aI54
aI31
aI-4
aI57
aI13
aI-84
aI19
aI-69
aI84
aI-27
aI-10
aI-49
aI32
aI-64
aI45
aI83
aI-69
aI-54
aI-17
aI96
aI78
aI-86
aI100
aI35
aI42
aI66
aI-72
aI-13
aI-49
aI98
aI-39
aI-53
aI81
aI36
aI3
aI-38
aI-54
aI73
aI-96
aI100
aI-62
aI-78
aI-33
aI-4
aI86
aI-51
aI-83
aI11
aI-32
aI-17
aI-9
aI27
aI97
aI26
aI19
aI31
aI49
aI50
aI4
aI-47
aI-7
aI-35
aI-67
aI91
aI92
aI-93
aI-15
aI-63
aI-52
aI65
aI-80
aI-31
aI66
aI-75
aI15
aI-84
aI-36
aI27
aI-89
aI94
aI-92
aI47
aI-48
aI-62
aI-56
aI33
aI89
aI-65
aI-72
aI93
aI20
aI-11
aI-77
aI25
aI-39
aI-26
aI-88
aI38
aI-21
aI24
aI39
aI5
aI80
aI85
aI-8
aI-77
aI-23
aI8
aI85
aI50
aI-42
aI-45
aI-15
aI-32
aI36
aI-83
aI13
aI-32
aI29
aI87
aI-59
aI-71
aI-14
aI-26
aI-74
aI-81
aI-98
aI36
aI-72
aI17
aI-77
aI-48
aI11
aI61
aI-49
aI-67
aI-27
aI-10
aI-74
aI26
aI-48
aI-25
aI-85
aI-24
aI-2
aI-73
aI-35
aI-79
aI48
aI-46
aI-13
aI100
aI36
aI-20
aI93
aI30
aI-64
aI-14
aI100
aI-27
aI79
aI36
aI-16
aI92
aI-56
aI18
aI-51
aI-22
aI-21
aI62
aI-32
aI-91
aI22
aI-18
aI-29
aI13
aI36
aI56
aI-60
aI53
aI18
aI-16
aI-72
aI51
aI-54
aI-1
aI-96
aI-48
aI-24
aI-92
aI-61
aI93
aI-8
aI-74
aI41
aI44
aI-86
aI18
aI-99
aI45
aI63
aI64
aI79
aI82
aI12
aI52
aI5
aI-37
aI-57
aI-77
aI14
aI100
aI75
aI-36
aI39
aI-80
aI38
aI-8
aI-16
aI-75
aI-28
aI-54
aI-46
aI6
aI50
aI3
aI-22
aI72
aI-51
aI-31
aI-61
aI13
aI79
aI95
aI-97
aI40
aI-62
aI84
aI-62
aI-66
aI12
aI91
aI-37
aI-47
aI76
aI27
aI-9
aI-54
aI-56
aI-73
aI62
aI-87
aI89
aI83
aI-79
aI-29
aI23
aI70
aI44
aI-94
aI-52
aI50
aI21
aI-70
aI-50
aI-68
aI-49
aI-79
aI-14
aI-3
aI98
aI-56
aI66
aI-38
aI39
aI78
aI-55
aI-53
aI-74
aI-68
aI-4
aI80
aI-3
aI100
aI-82
aI65
aI-66
aI26
aI-69
aI50
aI-75
aI-87
aI-60
aI-98
aI26
aI-22
aI74
aI99
aI38
aI-22
aI-32
aI57
aI16
aI93
aI58
aI50
aI90
aI48
aI45
aI-26
aI15
aI71
aI90
aI-77
aI58
aI9
aI-14
aI19
aI-44
aI-77
aI80
aI46
aI-30
aI-80
aI4
aI70
aI65
aI76
aI73
aI25
aI82
aI16
aI-57
aI-73
aI-9
aI-60
aI-69
aI-22
aI53
aI93
aI-24
aI-33
aI-94
aI69
aI82
aI-78
aI-8
aI-1
aI72
aI-25
aI31
aI-44
aI17
aI-15
aI27
aI-74
aI90
aI-13
aI67
aI-35
aI-40
aI70
aI-96
aI-84
aI57
aI-89
aI22
aI5
aI-89
aI24
aI-84
aI95
aI50
aI24
aI-11
aI-42
aI90
aI-6
aI-4
aI-83
aI81
aI14
aI21
aI-93
aI-2
aI-5
aI61
aI-40
aI-45
aI-14
aI17
aI71
aI-39
aI9
aI-80
aI5
aI96
aI-73
aI48
aI-16
aI19
aI64
aI75
aI-17
aI-54
aI-97
aI-57
aI-73
aI-98
aI25
aI42
aI22
aI-81
aI94
aI-23
aI-99
aI-2
aI81
aI-100
aI-35
aI97
aI-40
aI50
aI-24
aI-29
aI-49
aI-66
aI-46
aI-44
aI-92
aI-87
aI60
aI-96
aI-87
aI-37
aI41
aI55
aI-46
aI-47
aI73
aI-27
aI-9
aI-51
aI67
aI13
aI35
aI-39
aI4
aI96
aI-36
aI61
aI-40
aI59
aI50
aI-94
aI-59
aI42
aI47
aI-98
aI-58
aI-51
aI-48
aI41
aI-11
aI34
aI-66
aI32
aI54
aI-12
aI-84
aI4
aI67
aI98
aI-8
aI-18
aI-90
aI-2
aI-86
aI43
aI-37
aI87
aI49
aI83
aI-42
aI-33
aI-23
aI-43
aI75
aI-29
aI-80
aI8
aI80
aI-74
aI6
aI-4
aI82
aI-84
aI-64
aI-15
aI16
aI99
aI-43
aI40
aI47
aI-53
aI-76
aI74
aI12
aI60
aI99
aI-13
aI-68
aI-16
aI-82
aI23
aI-90
aI-97
aI-5
aI31
aI-26
aI-64
aI94
aI37
aI74
aI31
aI-24
aI-51
aI87
aI-100
aI65
aI-17
aI-24
aI91
aI-85
aI-48
aI-3
aI48
aI-21
aI-55
aI48
aI89
aI48
aI-38
aI59
aI70
aI-31
aI-30
aI-89
aI-81
aI79
aI95
aI-12
aI-32
aI57
aI-87
aI26
aI62
aI45
aI-91
aI-76
aI-77
aI2
aI23
aI1
aI3
aI-12
aI72
aI-82
aI-61
aI-98
aI12
aI16
aI65
aI-60
aI11
aI-50
aI-87
aI-90
aI-3
aI-88
aI-47
aI62
aI-14
aI-28
aI7
aI-6
aI-34
aI-53
aI100
aI73
aI19
aI-52
aI48
aI-27
aI-4
aI-66
aI16
aI81
aI-69
aI14
aI-85
aI18
aI-37
aI-38
aI-41
aI-55
aI-20
aI-29
aI57
aI87
aI86
aI-71
aI59
aI15
aI-88
aI-69
aI-34
aI-15
aI-52
aI-76
aI72
aI-98
aI38
aI-14
aI-62
aI-49
aI-71
aI89
aI54
aI-46
aI-83
aI75
aI58
aI94
aI-96
aI72
aI-8
aI-17
aI-91
aI-47
aI-90
aI54
aI-30
aI73
aI5
aI-54
aI-24
aI20
aI-8
aI-81
aI-33
aI-12
aI-96
aI-5
aI-74
aI-19
aI-5
aI21
aI85
aI2
aI96
aI-17
aI9
aI-3
aI-2
aI-89
aI-62
aI64
aI-46
aI26
aI57
aI-89
aI62
aI-37
aI-25
aI73
aI93
aI85
aI-93
aI55
aI90
aI-47
aI-77
aI-69
aI-6
aI30
aI83
aI66
aI-100
aI-85
aI-50
aI-81
aI66
aI68
aI-76
aI-3
aI-7
aI69
aI95
aI-92
aI95
aI-78
aI-69
aI-24
aI56
aI33
aI-61
aI43
aI-6
aI85
aI-97
aI8
aI36
aI-79
aI47
aI86
aI-31
aI-59
aI25
aI78
aI69
aI-23
aI-61
aI58
aI85
aI17
aI29
aI42
aI-63
aI47
aI-58
aI-36
aI21
aI-1
aI74
aI93
aI52
aI-38
aI80
aI-73
aI48
aI-22
aI-90
aI-37
aI-75
aI-18
aI99
aI11
aI45
aI48
aI-66
aI22
aI-17
aI94
aI-67
aI88
aI84
aI18
aI-17
aI-48
aI-57
aI42
aI-88
aI25
aI-12
aI-48
aI-69
aI-47
aI-82
aI-94
aI10
aI-26
aI-88
aI-97
aI53
aI-52
aI79
aI29
aI83
aI93
aI23
aI89
aI-76
aI-45
aI-92
aI28
aI-71
aI-56
aI-92
aI-52
aI0
aI86
aI67
aI71
aI-27
aI-17
aI47
aI87
aI-61
aI-75
aI-15
aI96
aI79
aI-26
aI36
aI-5
aI55
aI-6
aI-69
aI-39
aI-57
aI-90
aI-92
aI50
aI-79
aI-87
aI-34
aI-7
aI69
aI-28
aI1
aI4
aI-53
aI45
aI47
aI-6
aI76
aI-19
aI95
aI80
aI-78
aI20
aI96
aI3
aI23
aI8
aI-70
aI28
aI96
aI-97
aI84
aI42
aI-36
aI18
aI-30
aI-75
aI75
aI-46
aI-60
aI13
aI-23
aI-23
aI75
aI-26
aI79
aI-27
aI94
aI-98
aI2
aI8
aI99
aI-29
aI91
aI65
aI-82
aI9
aI48
aI-18
aI-92
aI-33
aI55
aI55
aI-91
aI95
aI-93
aI-41
aI-6
aI90
aI17
aI46
aI-100
aI99
aI90
aI-3
aI-25
aI43
aI19
aI-16
aI-33
aI-34
aI-15
aI-59
aI90
aI70
aI-75
aI92
aI90
aI10
aI-17
aI72
aI22
aI-87
aI9
aI96
aI-48
aI-39
aI-65
aI-78
aI78
aI32
aI48
aI-48
aI29
aI-34
aI72
aI65
aI-39
aI-50
aI-73
aI87
aI-15
aI23
aI9
aI-54
aI80
aI24
aI-49
aI-49
aI-89
aI32
aI-57
aI85
aI20
aI-41
aI38
aI-11
aI56
aI35
aI66
aI-5
aI-29
aI31
aI72
aI49
aI-28
aI-60
aI100
aI-75
aI-49
aI2
aI51
aI-46
aI-5
aI-77
aI28
aI76
aI2
aI81
aI25
aI57
aI12
aI54
aI10
aI24
aI-28
aI33
aI53
aI29
aI54
aI2
aI63
aI4
aI95
aI-48
aI12
aI-75
aI0
aI61
aI86
aI-63
aI61
aI-48
aI61
aI-71
aI-64
aI50
aI10
aI87
aI43
aI19
aI0
aI1
aI25
aI-43
aI-66
aI-92
aI-42
aI47
aI-76
aI48
aI63
aI-16
aI-29
aI80
aI78
aI-22
aI41
aI-27
aI96
aI-52
aI-22
aI93
aI57
aI-72
aI-85
aI-96
aI-68
aI-43
aI62
aI86
aI-98
aI27
aI52
aI33
aI69
aI30
aI-49
aI37
aI-39
aI47
aI95
aI85
aI55
aI73
aI100
aI72
aI-6
aI71
aI82
aI85
aI-36
aI77
aI44
aI55
aI-91
aI-80
aI-63
aI-71
aI-88
aI47
aI80
aI-13
aI-50
aI84
aI52
aI77
aI-35
aI-72
aI-4
aI52
aI39
aI-33
aI-26
aI-87
aI84
aI8
aI64
aI56
aI-30
aI-58
aI-29
aI-13
aI34
aI-46
aI-57
aI-13
aI76
aI1
aI53
aI66
aI-72
aI-14
aI-79
aI-71
aI-85
aI85
aI10
aI-51
aI42
aI5
aI46
aI68
aI-35
aI43
aI52
aI-87
aI-8
aI46
aI58
aI87
aI39
aI32
aI-53
aI-1
aI-98
aI-39
aI-41
aI-84
aI43
aI-50
aI93
aI59
aI-18
aI0
aI-49
aI-35
aI-39
aI-49
aI49
aI78
aI36
aI-12
aI-90
aI97
aI21
aI45
aI67
aI-16
aI-60
aI-60
aI83
aI-79
aI-84
aI-17
aI-47
aI77
aI81
aI-86
aI-89
aI51
aI-41
aI-62
aI-3
aI19
aI42
aI40
aI-51
aI87
aI90
aI-4
aI45
aI-41
aI70
aI67
aI-96
aI-9
aI79
aI-73
aI-24
aI88
aI4
aI94
aI86
aI-84
aI26
aI-50
aI58
aI51
aI42
aI-60
aI63
aI-7
aI53
aI48
aI-87
aI-46
aI-18
aI-43
aI42
aI-1
aI-84
aI3
aI34
aI26
aI-17
aI-5
aI-16
aI-66
aI32
aI56
aI58
aI-11
aI36
aI-90
aI4
aI-51
aI78
aI-94
aI90
aI48
aI27
aI-10
aI-18
aI-85
aI41
aI-86
aI87
aI59
aI39
aI-98
aI54
aI33
aI-50
aI78
aI5
aI-96
aI-10
aI-76
aI73
aI9
aI-88
aI4
aI26
aI-59
aI98
aI29
aI64
aI27
aI-63
aI82
aI79
aI-1
aI-56
aI42
aI-75
aI-33
aI-12
aI-84
aI-11
aI-11
aI29
aI-11
aI-32
aI-85
aI58
aI78
aI-75
aI-54
aI46
aI69
aI-92
aI67
aI-72
aI-46
aI5
aI-63
aI80
aI-32
aI28
aI-51
aI7
aI-14
aI-90
aI89
aI56
aI-64
aI-19
aI26
aI-96
aI89
aI63
aI71
aI72
aI-67
aI-96
aI57
aI-11
aI77
aI-85
aI4
aI-57
aI18
aI-32
aI-96
aI-7
aI74
aI42
aI-71
aI82
aI46
aI-97
aI-92
aI49
aI82
aI-66
aI-26
aI-19
aI-89
aI-99
aI-48
aI85
aI21
aI-39
aI73
aI31
aI96
aI73
aI-98
aI-71
aI-77
aI16
aI61
aI97
aI4
aI64
aI28
aI50
aI-48
aI-95
aI82
aI33
aI57
aI-51
aI-34
aI-76
aI-23
aI-80
aI-54
aI24
aI30
aI-70
aI16
aI-20
aI22
aI10
aI-19
aI-61
aI-22
aI-66
aI85
aI-34
aI-47
aI-54
aI-33
aI-34
aI-58
aI49
aI-66
aI68
aI70
aI87
aI-45
aI-67
aI12
aI-5
aI-57
aI-83
aI58
aI-76
aI22
aI36
aI81
aI6
aI-92
aI-75
aI-29
aI87
aI43
aI-61
aI-98
aI56
aI-96
aI100
aI-81
aI-15
aI4
aI-67
aI-75
aI97
aI-24
aI-77
aI68
aI33
aI18
aI67
aI-83
aI93
aI53
aI-29
aI-77
aI49
aI58
aI-35
aI-57
aI-78
aI-58
aI-86
aI-34
aI3
aI83
aI-31
aI-18
aI94
aI-72
aI-56
aI65
aI9
aI97
aI-79
aI30
aI-76
aI86
aI-31
aI-19
aI-58
aI-39
aI-61
aI49
aI30
aI-26
aI-49
aI70
aI-89
aI-5
aI65
aI80
aI-78
aI-9
aI62
aI76
aI-89
aI79
aI-74
aI-11
aI90
aI24
aI88
aI-68
aI56
aI32
aI82
aI-46
aI99
aI-17
aI23
aI81
aI1
aI-14
aI56
aI-24
aI67
aI-67
aI-80
aI39
aI-40
aI-2
aI-34
aI-61
aI-94
aI64
aI-25
aI27
aI42
aI15
aI-85
aI-95
aI55
aI46
aI9
aI48
aI-52
aI-35
aI-64
aI-13
aI-51
aI70
aI-18
aI-89
aI10
aI-33
aI50
aI-72
aI-59
aI39
aI-33
aI-74
aI-34
aI-29
aI-35
aI52
aI74
aI87
aI52
aI99
aI41
aI-4
aI31
aI90
aI61
aI7
aI-26
aI-71
aI42
aI17
aI-58
aI-84
aI-17
aI9
aI63
aI-32
aI56
aI-96
aI58
aI-93
aI76
aI-79
aI-11
aI5
aI7
aI16
aI-63
aI97
aI-6
aI37
aI-56
aI-35
aI94
aI-49
aI-18
aI-96
aI-32
aI68
aI58
aI30
aI-91
aI67
aI46
aI-72
aI-97
aI63
aI-19
aI90
aI-86
aI-30
aI74
aI-41
aI8
aI99
aI-89
aI11
aI-85
aI-30
aI77
aI87
aI92
aI23
aI-10
aI37
aI40
aI86
aI-68
aI37
aI-5
aI-27
aI0
aI72
aI48
aI73
aI-94
aI98
aI-11
aI-35
aI55
aI5
aI-32
aI-2
aI22
aI54
aI-26
aI57
aI-64
aI-84
aI69
aI-72
aI36
aI77
aI63
aI34
aI-97
aI24
aI75
aI-47
aI-60
aI-30
aI-37
aI-14
aI68
aI-59
aI52
aI93
aI-95
aI55
aI50
aI-36
aI98
aI29
aI46
aI-93
aI91
aI-20
aI2
aI-95
aI91
aI-11
aI98
aI80
aI41
aI-76
aI-89
aI-96
aI50
aI43
aI86
aI63
aI-40
aI-42
aI-13
aI24
aI53
aI36
aI33
aI17
aI30
aI87
aI-34
aI-81
aI-7
aI-70
aI-34
aI-17
aI-87
aI25
aI37
aI-38
aI29
aI61
aI-82
aI-7
aI-75
aI-60
aI-43
aI45
aI-5
aI8
aI-4
aI-8
aI9
aI76
aI34
aI-25
aI-38
aI54
aI-56
aI6
aI-64
aI-33
aI-7
aI-51
aI72
aI92
aI-94
aI84
aI-34
aI-71
aI-71
aI-58
aI65
aI-35
aI-43
aI21
aI40
aI-21
aI3
aI47
aI-14
aI67
aI-6
aI-35
aI54
aI19
aI16
aI-21
aI-30
aI-14
aI-82
aI68
aI-12
aI63
aI37
aI91
aI-9
aI-1
aI-22
aI-35
aI-25
aI-12
aI90
aI-57
aI-96
aI-59
aI-65
aI16
aI65
aI73
aI-35
aI41
aI67
aI65
aI50
aI-28
aI-43
aI-29
aI-91
aI34
aI27
aI-93
aI62
aI-44
aI-47
aI94
aI14
aI86
aI24
aI15
aI-62
aI83
aI-10
aI48
aI51
aI-38
aI54
aI90
aI-91
aI72
aI63
aI43
aI2
aI34
aI-83
aI0
aI24
aI-88
aI-65
aI80
aI76
aI47
aI65
aI-97
aI-95
aI90
aI-75
aI-84
aI93
aI33
aI-14
aI-9
aI13
aI21
aI30
aI-3
aI30
aI28
aI-77
aI-93
aI-46
aI-15
aI-76
aI-54
aI-42
aI56
aI-32
aI84
aI55
aI64
aI-45
aI32
aI94
aI100
aI25
aI-74
aI88
aI-44
aI-49
aI11
aI-79
aI-68
aI-40
aI80
aI27
aI36
aI76
aI19
aI1
aI82
aI-43
aI-37
aI15
aI44
aI-44
aI-56
aI74
aI51
aI-50
aI74
aI93
aI91
aI2
aI55
aI16
aI-48
aI25
aI-5
aI96
aI40
aI77
aI20
aI92
aI-24
aI60
aI83
aI47
aI33
aI75
aI-67
aI-38
aI-5
aI33
aI-88
aI-71
aI-86
aI2
aI-73
aI89
aI-48
aI-77
aI-32
aI84
aI-63
aI21
aI98
aI22
aI-4
aI-74
aI3
aI71
aI-58
aI78
aI15
aI-26
aI-77
aI55
aI31
aI95
aI21
aI-72
aI40
aI-92
aI-87
aI-21
aI33
aI-25
aI42
aI27
aI83
aI-99
aI-8
aI-53
aI43
aI-54
aI-79
aI-14
aI-91
aI44
aI38
aI34
aI31
aI-39
aI20
aI57
aI-8
aI-58
aI-21
aI-49
aI9
aI15
aI5
aI-24
aI42
aI-55
aI72
aI22
aI66
aI55
aI7
aI30
aI56
aI83
aI-94
aI64
aI-47
aI13
aI28
aI39
aI41
aI2
aI-2
aI-19
aI-20
aI-25
aI93
aI10
aI28
aI-71
aI-20
aI-95
aI-15
aI89
aI-70
aI98
aI9
aI-68
aI-13
aI-40
aI79
aI-100
aI78
aI99
aI-23
aI35
aI-24
aI1
aI-8
aI-18
aI-19
aI-20
aI-99
aI-28
aI-93
aI-1
aI-47
aI-90
aI-19
aI-22
aI77
aI84
aI-14
aI64
aI-13
aI-72
aI86
aI7
aI20
aI-30
aI-24
aI-51
aI64
aI-8
aI-10
aI99
aI-59
aI-60
aI6
aI75
aI17
aI59
aI88
aI94
aI54
aI-16
aI13
aI-40
aI-85
aI-2
aI-56
aI-17
aI-99
aI82
aI45
aI-67
aI30
aI-50
aI-24
aI-11
aI-69
aI-66
aI-97
aI-8
aI-6
aI9
aI-37
aI-44
aI-33
aI-42
aI66
aI77
aI-8
aI-10
aI-94
aI-5
aI7
aI-31
aI-71
aI-55
aI-25
aI-71
aI-80
aI-93
aI69
aI-41
aI50
aI-6
aI31
aI-48
aI-33
aI80
aI61
aI-50
aI95
aI-57
aI-4
aI-78
aI70
aI-49
aI85
aI-75
aI-80
aI73
aI-77
aI-47
aI-37
aI-55
aI64
aI73
aI96
aI-27
aI-30
aI-71
aI83
aI42
aI73
aI41
aI-97
aI58
aI-45
aI-50
aI-6
aI-29
aI71
aI-38
aI-77
aI17
aI17
aI14
aI-89
aI-51
aI89
aI86
aI63
aI56
aI4
aI-60
aI3
aI88
aI16
aI2
aI23
aI-52
aI38
aI65
aI-91
aI-73
aI-25
aI89
aI80
aI2
aI-48
aI66
aI75
aI-79
aI-67
aI-93
aI47
aI55
aI-55
aI-25
aI14
aI-35
aI-41
aI-24
aI-76
aI-86
aI87
aI96
aI1
aI-16
aI-38
aI-57
aI9
aI-71
aI-45
aI32
aI34
aI-82
aI96
aI94
aI14
aI-3
aI-32
aI22
aI-71
aI-21
aI30
aI-24
aI37
aI76
aI48
aI23
aI-99
aI15
aI-63
aI96
aI9
aI83
aI-25
aI96
aI-54
aI34
aI70
aI3
aI53
aI-90
aI-38
aI62
aI34
aI57
aI40
aI97
aI86
aI-20
aI61
aI30
aI-15
aI64
aI94
aI21
aI-43
aI19
aI-18
aI41
aI-78
aI57
aI-84
aI-90
aI-96
aI27
aI52
aI-76
aI13
aI-79
aI-23
aI-38
aI-19
aI-26
aI4
aI-24
aI-15
aI10
aI-98
aI36
aI94
aI-69
aI58
aI-71
aI-28
aI96
aI-94
aI-57
aI-40
aI-17
aI-69
aI76
aI32
aI-9
aI36
aI-21
aI86
aI6
aI-88
aI58
aI63
aI24
aI61
aI-20
aI-51
aI-6
aI-45
aI87
aI-52
aI23
aI-28
aI-54
aI54
aI75
aI34
aI29
aI97
aI-41
aI-1
aI18
aI-9
aI-73
aI45
aI69
aI70
aI6
aI92
aI100
aI-32
aI-70
aI76
aI63
aI39
aI21
aI-25
aI-61
aI-54
aI-62
aI-44
aI22
aI83
aI8
aI-37
aI21
aI-24
aI-80
aI45
aI33
aI-73
aI31
aI83
aI-59
aI-31
aI4
aI-76
aI64
aI-37
aI-2
aI92
aI36
aI-24
aI5
aI-61
aI14
aI-98
aI-100
aI-16
aI-13
aI94
aI-45
aI86
aI-93
aI-36
aI-80
aI83
aI49
aI-96
aI-33
aI74
aI6
aI-90
aI-57
aI63
aI15
aI55
aI-67
aI-38
aI58
aI18
aI53
aI-67
aI10
aI-14
aI-97
aI-11
aI41
aI-83
aI-16
aI-5
aI81
aI18
aI-46
aI-84
aI-31
aI13
aI-59
aI96
aI64
aI-47
aI31
aI-89
aI-3
aI72
aI-77
aI88
aI21
aI-77
aI-29
aI-32
aI14
aI92
aI56
aI-67
aI-70
aI46
aI-16
aI63
aI93
aI82
aI4
aI79
aI-57
aI-29
aI-1
aI76
aI-42
aI-80
aI-68
aI29
aI44
aI-35
aI80
aI62
aI-70
aI32
aI76
aI-9
aI68
aI-45
aI-61
aI-46
aI47
aI81
aI-55
aI79
aI-83
aI66
aI-51
aI37
aI-15
aI20
aI-55
aI-37
aI-57
aI2
aI98
aI86
aI-37
aI-88
aI-99
aI1
aI-63
aI-44
aI-84
aI-17
aI57
aI-20
aI55
aI-93
aI-63
aI-28
aI-18
aI-16
aI53
aI13
aI87
aI16
aI3
aI66
aI7
aI-15
aI25
aI-75
aI-14
aI-4
aI-46
aI70
aI94
aI12
aI-100
aI-8
aI-70
aI11
aI23
aI89
aI-22
aI-33
aI-30
aI85
aI32
aI3
aI-88
aI14
aI53
aI36
aI0
aI-54
aI-70
aI-58
aI71
aI32
aI82
aI-51
aI18
aI-45
aI55
aI-73
aI78
aI57
aI-96
aI51
aI13
aI10
aI64
aI8
aI-2
aI89
aI12
aI37
aI-76
aI43
aI100
aI-72
aI-82
aI86
aI-25
aI53
aI-48
aI-74
aI-28
aI-74
aI-53
aI50
aI96
aI-82
aI68
aI37
aI84
aI-19
aI-15
aI-11
aI96
aI88
aI-34
aI47
aI49
aI86
aI35
aI13
aI-65
aI67
aI-49
aI-59
aI45
aI-32
aI93
aI-40
aI77
aI-70
aI-28
aI-9
aI-98
aI-99
aI96
aI82
aI39
aI79
aI-32
aI-58
aI-54
aI-56
aI-30
aI46
aI-12
aI-75
aI-9
aI-80
aI-49
aI61
aI4
aI7
aI2
aI-72
aI-53
aI-57
aI-25
aI-32
aI-20
aI-9
aI17
aI-62
aI11
aI6
aI-48
aI-15
aI61
aI2
aI-29
aI-33
aI-47
aI-13
aI-22
aI-84
aI97
aI-38
aI73
aI-52
aI91
aI5
aI-72
aI-12
aI-24
aI-33
aI90
aI-65
aI-44
aI55
aI89
aI56
aI-28
aI-69
aI77
aI85
aI-74
aI89
aI20
aI-93
aI-27
aI-5
aI49
aI66
aI16
aI-18
aI-76
aI-4
aI-81
aI-6
aI83
aI-98
aI65
aI22
aI82
aI-86
aI-24
aI68
aI39
aI27
aI91
aI86
aI-7
aI-30
aI-86
aI-3
aI84
aI-70
aI-24
aI-80
aI73
aI67
aI50
aI-81
aI42
aI-44
aI14
aI-80
aI9
aI77
aI-61
aI-2
aI-13
aI76
aI23
aI23
aI6
aI-80
aI54
aI-68
aI77
aI-60
aI-85
aI42
aI-83
aI-62
aI50
aI14
aI70
aI-87
aI-18
aI49
aI40
aI51
aI-31
aI-16
aI26
aI-63
aI13
aI28
aI97
aI6
aI-61
aI95
aI66
aI-61
aI-53
aI-44
aI61
aI15
aI4
aI-54
aI-80
aI-68
aI-26
aI-2
aI-50
aI76
aI-25
aI65
aI33
aI39
aI-77
aI76
aI-72
aI-84
aI-47
aI-2
aI57
aI-42
aI-32
aI-61
aI31
aI-94
aI-35
aI-71
aI-44
aI-18
aI-15
aI56
aI-53
aI-83
aI8
aI-16
aI77
aI-43
aI-32
aI66
aI37
aI-37
aI25
aI-17
aI-65
aI88
aI-51
aI53
aI-79
aI24
aI73
aI4
aI-27
aI-19
aI6
aI7
aI10
aI4
aI69
aI78
aI-85
aI-17
aI-99
aI24
aI-63
aI-74
aI-59
aI-67
aI-36
aI-96
aI59
aI23
aI80
aI64
aI-55
aI15
aI16
aI13
aI-95
aI-32
aI81
aI-89
aI-84
aI84
aI13
aI78
aI-62
aI-50
aI-20
aI-32
aI43
aI41
aI-74
aI-49
aI97
aI-47
aI-28
aI14
aI95
aI32
aI80
aI86
aI-98
aI-93
aI-54
aI-30
aI77
aI-27
aI-91
aI5
aI-84
aI61
aI65
aI-94
aI-35
aI-60
aI0
aI57
aI13
aI-16
aI-46
aI-100
aI-40
aI-98
aI-80
aI-94
aI82
aI81
aI-26
aI-7
aI92
aI-22
aI29
aI30
aI-67
aI66
aI-86
aI-37
aI-6
aI-31
aI19
aI-37
aI-16
aI-30
aI44
aI94
aI15
aI-70
aI39
aI-11
aI-86
aI73
aI11
aI1
aI-71
aI-45
aI26
aI-99
aI0
aI-95
aI31
aI49
aI32
aI19
aI-17
aI76
aI24
aI-14
aI-17
aI-5
aI-69
aI-11
aI91
aI44
aI-30
aI79
aI-93
aI-86
aI60
aI-45
aI-46
aI-7
aI18
aI77
aI67
aI-67
aI-90
aI85
aI-15
aI-31
aI6
aI54
aI9
aI13
aI98
aI100
aI-87
aI-49
aI-4
aI25
aI76
aI-60
aI92
aI46
aI35
aI-65
aI54
aI97
aI38
aI-37
aI37
aI22
aI-77
aI37
aI13
aI73
aI-15
aI-57
aI31
aI-93
aI36
aI-51
aI-82
aI-5
aI84
aI48
aI13
aI-77
aI-8
aI94
aI-24
aI53
aI-39
aI73
aI33
aI-67
aI11
aI-74
aI45
aI3
aI-55
aI57
aI22
aI-48
aI-95
aI85
aI92
aI-20
aI52
aI-76
aI68
aI48
aI-62
aI12
aI13
aI85
aI62
aI-32
aI1
aI2
aI-54
aI85
aI-61
aI-80
aI37
aI-100
aI-1
aI36
aI28
aI13
aI20
aI25
aI-68
aI88
aI-75
aI31
aI15
aI46
aI-47
aI1
aI-75
aI-95
aI36
aI33
aI76
aI-45
aI68
aI-5
aI12
aI46
aI-24
aI-71
aI90
aI91
aI-36
aI47
aI95
aI19
aI26
aI88
aI94
aI38
aI16
aI-94
aI-10
aI79
aI2
aI-37
aI1
aI47
aI-51
aI5
aI39
aI73
aI-75
aI9
aI-19
aI-6
aI-44
aI84
aI-11
aI-37
aI84
aI-98
aI70
aI-65
aI92
aI-95
aI21
aI92
aI-37
aI-6
aI-26
aI14
aI57
aI19
aI3
aI24
aI-91
aI-36
aI-79
aI-71
aI-12
aI7
aI-42
aI13
aI89
aI15
aI33
aI35
aI-87
aI41
aI81
aI78
aI-84
aI36
aI-19
aI86
aI-8
aI-50
aI-77
aI50
aI-6
aI66
aI15
aI84
aI74
aI-75
aI11
aI14
aI50
aI-56
aI-13
aI82
aI-60
aI-46
aI-87
aI9
aI-40
aI-10
aI-2
aI84
aI-7
aI-85
aI75
aI38
aI51
aI-50
aI90
aI-2
aI-61
aI39
aI98
aI-23
aI-75
aI66
aI12
aI-74
aI40
aI-12
aI91
aI-92
aI63
aI-52
aI-89
aI73
aI60
aI75
aI39
aI42
aI-15
aI52
aI-74
aI-51
aI36
aI-4
aI61
aI-26
aI58
aI95
aI-33
aI-84
aI56
aI-30
aI98
aI3
aI49
aI87
aI-35
aI-67
aI-27
aI-5
aI64
aI-53
aI66
aI13
aI25
aI-58
aI-11
aI10
aI89
aI-10
aI-19
aI69
aI-15
aI26
aI97
aI-18
aI84
aI32
aI-7
aI-55
aI26
aI-72
aI82
aI67
aI-100
aI41
aI-77
aI-47
aI-30
aI14
aI-88
aI-6
aI11
aI10
aI33
aI-53
aI-80
aI-34
aI-87
aI-47
aI-3
aI-96
aI-54
aI-26
aI75
aI96
aI-74
aI-82
aI-9
aI88
aI4
aI28
aI77
aI60
aI59
aI-54
aI100
aI88
aI-71
aI-46
aI-5
aI21
aI78
aI45
aI77
aI-48
aI38
aI-80
aI64
aI-94
aI-79
aI-25
aI47
aI-9
aI33
aI-68
aI35
aI11
aI-22
aI28
aI11
aI34
aI67
aI13
aI34
aI80
aI12
aI-77
aI61
aI80
aI-40
aI-33
aI-85
aI17
aI30
aI81
aI-20
aI33
aI41
aI-80
aI-85
aI2
aI-99
aI90
aI-54
aI87
aI-24
aI-52
aI-62
aI-47
aI2
aI87
aI-13
aI-98
aI-7
aI1
aI29
aI96
aI-52
aI-58
aI-98
aI-62
aI-8
aI-2
aI32
aI-17
aI-57
aI41
aI-8
aI-66
aI-11
aI-32
aI-39
aI92
aI100
aI-26
aI-31
aI-47
aI40
aI-41
aI-67
aI-46
aI-58
aI-74
aI57
aI17
aI98
aI-27
aI8
aI80
aI42
aI-80
aI-93
aI62
aI-61
aI65
aI-38
aI76
aI86
aI-11
aI-13
aI38
aI-14
aI27
aI-25
aI-31
aI39
aI-27
aI-8
aI-66
aI68
aI18
aI64
aI-12
aI-80
aI-74
aI-26
aI-49
aI35
aI82
aI80
aI-86
aI79
aI90
aI19
aI-61
aI-56
aI-79
aI-39
aI-60
aI-74
aI-16
aI-24
aI99
aI-57
aI-14
aI-71
aI41
aI48
aI60
aI48
aI-70
aI78
aI-26
aI73
aI-79
aI-92
aI89
aI68
aI-31
aI91
aI-1
aI39
aI21
aI-68
aI-89
aI-37
aI99
aI55
aI-100
aI-9
aI7
aI-40
aI-51
aI6
aI40
aI62
aI69
aI-44
aI-30
aI-67
aI-50
aI-100
aI-51
aI-96
aI37
aI2
aI71
aI-55
aI14
aI-13
aI43
aI86
aI-56
aI80
aI43
aI24
aI48
aI-60
aI-14
aI-75
aI93
aI-12
aI-41
aI17
aI7
aI66
aI40
aI8
aI-78
aI15
aI-79
aI-91
aI-13
aI62
aI12
aI-49
aI-2
aI-33
aI-75
aI-10
aI41
aI-99
aI-19
aI-55
aI-57
aI10
aI-55
aI50
aI46
aI-95
aI79
aI-81
aI98
aI18
aI39
aI-97
aI-55
aI56
aI12
aI97
aI52
aI20
aI75
aI87
aI-6
aI-9
aI-74
aI-80
aI-96
aI-11
aI74
aI90
aI30
aI8
aI4
aI-95
aI39
aI39
aI-29
aI66
aI60
aI58
aI19
aI-40
aI43
aI96
aI2
aI-21
aI-84
aI-63
aI60
aI65
aI63
aI-49
aI-12
aI40
aI13
aI33
aI76
aI-91
aI-35
aI80
aI61
aI14
aI-54
aI-61
aI-35
aI2
aI-36
aI-70
aI-5
aI1
aI9
aI14
aI37
aI-88
aI-62
aI-34
aI7
aI-16
aI-28
aI-74
aI59
aI34
aI-92
aI10
aI-46
aI-46
aI-70
aI1
aI47
aI-42
aI94
aI11
aI23
aI-59
aI-11
aI-7
aI-60
aI40
aI-43
aI3
aI-79
aI-6
aI49
aI26
aI-43
aI-57
aI32
aI-13
aI53
aI16
aI-39
aI-30
aI-70
aI95
aI-64
aI-56
aI54
aI-72
aI-57
aI-66
aI-48
aI22
aI-78
aI32
aI51
aI47
aI14
aI-8
aI82
aI-96
aI-52
aI55
aI38
aI37
aI-23
aI42
aI-59
aI29
aI20
aI-74
aI15
aI23
aI81
aI-19
aI-22
aI52
aI17
aI-14
aI-93
aI64
aI71
aI-9
aI85
aI25
aI59
aI-68
aI-78
aI-16
aI-95
aI80
aI-43
aI84
aI7
aI18
aI-97
aI90
aI-94
aI11
aI-52
aI63
aI-31
aI48
aI-9
aI55
aI-67
aI-51
aI-68
aI19
aI-71
aI-22
aI-22
aI-90
aI34
aI30
aI56
aI21
aI-23
aI-86
aI51
aI-20
aI39
aI97
aI34
aI37
aI-91
aI99
aI-21
aI-76
aI-65
aI62
aI-43
aI-27
aI75
aI-79
aI27
aI41
aI46
aI-68
aI-11
aI58
aI11
aI-66
aI-7
aI14
aI53
aI26
aI-80
aI-55
aI-46
aI41
aI32
aI37
aI67
aI7
aI-83
aI30
aI-94
aI-96
aI22
aI-15
aI64
aI-39
aI1
aI43
aI10
aI-77
aI27
aI-78
aI93
aI35
aI38
aI-10
aI0
aI-93
aI-7
aI-98
aI39
aI-33
aI-29
aI-93
aI19
aI69
aI-65
aI-25
aI15
aI-29
aI57
aI-87
aI-34
aI-94
aI-37
aI-77
aI83
aI-38
aI-25
aI89
aI-85
aI-72
aI82
aI54
aI-12
aI52
aI70
aI-81
aI2
aI42
aI79
aI-29
aI74
aI10
aI99
aI-29
aI-38
aI88
aI69
aI-24
aI91
aI84
aI8
aI61
aI55
aI10
aI62
aI-97
aI-3
aI76
aI91
aI-58
aI-35
aI-60
aI-40
aI-58
aI91
aI52
aI-48
aI5
aI-5
aI52
aI44
aI9
aI55
aI33
aI87
aI-83
aI53
aI-33
aI61
aI-94
aI38
aI-1
aI3
aI90
aI-9
aI62
aI-53
aI-94
aI94
aI-16
aI27
aI-8
aI80
aI-83
aI35
aI17
aI2
aI94
aI-30
aI20
aI2
aI26
aI46
aI96
aI-62
aI-4
aI-61
aI-81
aI53
aI-98
aI72
aI-43
aI-89
aI37
aI4
aI-78
aI-38
aI-24
aI27
aI4
aI2
aI94
aI88
aI14
aI-91
aI-51
aI-82
aI82
aI-61
aI-38
aI58
aI3
aI-27
aI47
aI30
aI30
aI86
aI-84
aI81
aI98
aI47
aI-52
aI-68
aI88
aI-25
aI-40
aI85
aI-32
aI-10
aI22
aI-34
aI-91
aI97
aI62
aI-44
aI-31
aI66
aI-72
aI97
aI-16
aI-94
aI66
aI-81
aI23
aI46
aI-64
aI-57
aI74
aI70
aI-2
aI48
aI64
aI19
aI38
aI90
aI-84
aI-19
aI-4
aI28
aI57
aI38
aI-96
aI13
aI46
aI-75
aI-58
aI94
aI-62
aI48
aI69
aI-52
aI-69
aI43
aI-42
aI-90
aI14
aI-6
aI-26
aI-50
aI-9
aI44
aI33
aI80
aI37
aI35
aI37
aI-93
aI3
aI-81
aI37
aI-56
aI25
aI84
aI-81
aI3
aI9
aI9
aI61
aI39
aI0
aI62
aI67
aI-64
aI49
aI74
aI91
aI10
aI26
aI-31
aI6
aI-49
aI42
aI77
aI83
aI-87
aI2
aI-45
aI90
aI8
aI65
aI-80
aI62
aI24
aI44
aI17
aI-85
aI-40
aI90
aI-87
aI41
aI-58
aI82
aI3
aI-67
aI60
aI-63
aI71
aI-77
aI-69
aI-85
aI60
aI-1
aI-81
aI4
aI80
aI-71
aI88
aI-93
aI24
aI-98
aI87
aI51
aI22
aI9
aI-88
aI26
aI-13
aI89
aI-6
aI11
aI-99
aI-73
aI-95
aI-19
aI69
aI-32
aI-91
aI-47
aI-15
aI8
aI-98
aI18
aI36
aI8
aI30
aI-44
aI-34
aI1
aI-60
aI-88
aI10
aI-97
aI-89
aI65
aI48
aI73
aI-74
aI15
aI-35
aI-70
aI58
aI-30
aI-81
aI-88
aI54
aI22
aI55
aI-98
aI-49
aI98
aI-62
aI73
aI69
aI45
aI27
aI71
aI-61
aI3
aI47
aI-96
aI44
aI-58
aI-72
aI29
aI-25
aI-25
aI-62
aI-96
aI25
aI12
aI-49
aI-18
aI-59
aI71
aI-86
aI-64
aI-61
aI78
aI-40
aI-96
aI64
aI35
aI-77
aI20
aI-16
aI11
aI-55
aI52
aI62
aI-86
aI-11
aI-46
aI-69
aI36
aI-64
aI-42
aI55
aI-47
aI-9
aI-81
aI40
aI20
aI40
aI-59
aI-81
aI43
aI-3
aI11
aI12
aI56
aI-32
aI-56
aI28
aI68
aI99
aI40
aI36
aI-85
aI-94
aI-46
aI90
aI-78
aI-21
aI29
aI40
aI-22
aI41
aI-30
aI-41
aI-22
aI-6
aI34
aI-63
aI-2
aI-3
aI-42
aI-13
aI-40
aI87
aI-84
aI-34
aI-21
aI45
aI13
aI-24
aI78
aI-48
aI-5
aI-72
aI44
aI-41
aI73
aI-67
aI-74
aI27
aI-59
aI-44
aI-26
aI-66
aI-22
aI97
aI27
aI-38
aI53
aI-91
aI-4
aI6
aI-75
aI67
aI39
aI85
aI40
aI46
aI-93
aI56
aI37
aI-9
aI-51
aI-26
aI-75
aI-51
aI96
aI-40
aI-34
aI24
aI-29
aI15
aI-83
aI-80
aI-72
aI-77
aI-50
aI13
aI62
aI1
aI91
aI82
aI-62
aI12
aI-60
aI-9
aI22
aI-47
aI24
aI47
aI93
aI-48
aI-36
aI-49
aI57
aI-82
aI59
aI46
aI0
aI-6
aI-79
aI-72
aI22
aI-15
aI-25
aI-41
aI68
aI-72
aI38
aI67
aI-56
aI-6
aI8
aI73
aI-39
aI70
aI68
aI-58
aI-42
aI25
aI64
aI-16
aI29
aI18
aI76
aI29
aI54
aI95
aI84
aI-95
aI61
aI73
aI-37
aI-21
aI12
aI-5
aI26
aI-36
aI40
aI-52
aI55
aI-67
aI-46
aI50
aI58
aI-40
aI-63
aI40
aI35
aI-84
aI66
aI-68
aI50
aI-92
aI77
aI56
aI63
aI-34
aI70
aI-33
aI-97
aI13
aI83
aI72
aI-92
aI-9
aI-8
aI-51
aI-81
aI-88
aI2
aI-46
aI93
aI-57
aI-20
aI80
aI-86
aI-15
aI-76
aI62
aI-78
aI-6
aI-36
aI35
aI93
aI-33
aI-26
aI-57
aI57
aI22
aI72
aI53
aI-81
aI-41
aI-7
aI73
aI-26
aI0
aI96
aI-24
aI1
aI-85
aI38
aI-75
aI54
aI-28
aI-87
aI-71
aI-8
aI-75
aI77
aI45
aI22
aI90
aI-30
aI-46
aI33
aI-12
aI-51
aI-91
aI-46
aI55
aI44
aI-70
aI-54
aI-85
aI-58
aI70
aI-83
aI44
aI-36
aI-35
aI-25
aI-50
aI21
aI76
aI-11
aI38
aI-96
aI2
aI-79
aI60
aI-18
aI-66
aI8
aI-50
aI-84
aI-86
aI74
aI85
aI-55
aI15
aI26
aI46
aI67
aI52
aI-30
aI-15
aI13
aI26
aI-84
aI-88
aI-96
aI-49
aI-32
aI-34
aI-34
aI-84
aI82
aI-5
aI93
aI-33
aI-72
aI-77
aI-61
aI-58
aI-16
aI64
aI89
aI94
aI11
aI-45
aI-1
aI77
aI69
aI59
aI-12
aI72
aI63
aI-29
aI-72
aI-10
aI-78
aI14
aI17
aI-93
aI58
aI13
aI25
aI81
aI8
aI13
aI43
aI85
aI54
aI-12
aI-44
aI50
aI-100
aI74
aI-74
aI-86
aI-48
aI-30
aI-52
aI39
aI15
aI89
aI45
aI-78
aI-69
aI32
aI-20
aI-85
aI-100
aI-73
aI-67
aI-93
aI50
aI33
aI83
aI62
aI88
aI-66
aI-50
aI-91
aI17
aI94
aI16
aI-3
aI-63
aI64
aI14
aI63
aI-40
aI-91
aI11
aI0
aI-56
aI-92
aI11
aI87
aI-82
aI-68
aI-16
aI61
aI29
aI-92
aI-23
aI69
aI-68
aI-97
aI-22
aI22
aI-56
aI24
aI-87
aI92
aI-24
aI77
aI62
aI-77
aI4
aI-36
aI21
aI2
aI-82
aI-29
aI56
aI89
aI-48
aI23
aI28
aI-38
aI68
aI-100
aI82
aI-28
aI-14
aI-31
aI24
aI-83
aI-79
aI12
aI17
aI37
aI-92
aI76
aI-61
aI80
aI91
aI-78
aI-74
aI63
aI-67
aI5
aI5
aI9
aI16
aI-99
aI-48
aI50
aI92
aI-26
aI37
aI57
aI4
aI-13
aI-94
aI61
aI-29
aI-68
aI99
aI10
aI-35
aI28
aI-70
aI-45
aI81
aI-19
aI-69
aI-43
aI38
aI-90
aI-38
aI32
aI86
aI2
aI21
aI3
aI-40
aI67
aI-1
aI60
aI55
aI71
aI-21
aI5
aI-91
aI-16
aI35
aI99
aI-33
aI-76
aI-76
aI51
aI8
aI-56
aI21
aI72
aI2
aI-1
aI-1
aI46
aI-82
aI-88
aI20
aI89
aI-21
aI97
aI24
aI-27
aI-65
aI23
aI86
aI94
aI-63
aI86
aI74
aI64
aI-18
aI-55
aI96
aI29
aI-41
aI-4
aI33
aI-15
aI48
aI72
aI-12
aI-20
aI78
aI-2
aI20
aI61
aI-71
aI-13
aI-29
aI-80
aI-5
aI22
aI-5
aI67
aI100
aI24
aI-51
aI36
aI31
aI-38
aI-58
aI-30
aI58
aI-45
aI36
aI12
aI-40
aI-17
aI74
aI71
aI-65
aI-58
aI50
aI-55
aI57
aI-59
aI68
aI39
aI96
aI26
aI23
aI-35
aI27
aI-79
aI-1
aI-78
aI-57
aI32
aI68
aI36
aI74
aI21
aI-50
aI81
aI-49
aI68
aI57
aI41
aI91
aI51
aI-47
aI-84
aI59
aI-31
aI71
aI36
aI-98
aI95
aI-70
aI-66
aI-45
aI40
aI12
aI-45
aI6
aI-31
aI30
aI28
aI31
aI1
aI-64
aI-85
aI-7
aI74
aI-46
aI78
aI19
aI-12
aI77
aI-89
aI-47
aI65
aI44
aI27
aI38
aI-58
aI77
aI-30
aI50
aI-22
aI-19
aI88
aI16
aI-19
aI96
aI-45
aI68
aI81
aI11
aI6
aI72
aI65
aI-74
aI-33
aI-25
aI33
aI91
aI37
aI64
aI11
aI-18
aI-79
aI6
aI55
aI-26
aI32
aI27
aI-72
aI72
aI-80
aI74
aI7
aI-64
aI4
aI-21
aI97
aI-58
aI84
aI87
aI52
aI-47
aI-50
aI33
aI94
aI97
aI-44
aI65
aI94
aI-90
aI24
aI35
aI99
aI-3
aI-5
aI73
aI34
aI6
aI-23
aI37
aI55
aI41
aI-47
aI-55
aI-1
aI-88
aI-48
aI64
aI17
aI13
aI29
aI43
aI-74
aI14
aI92
aI52
aI-83
aI28
aI-66
aI33
aI-26
aI-27
aI68
aI51
aI36
aI88
aI-18
aI-75
aI79
aI39
aI75
aI-43
aI-55
aI-6
aI10
aI33
aI5
aI84
aI4
aI-18
aI-71
aI-42
aI-17
aI31
aI-68
aI-11
aI80
aI66
aI-13
aI85
aI-4
aI87
aI90
aI51
aI47
aI82
aI-42
aI66
aI26
aI-34
aI-16
aI-89
aI10
aI-21
aI71
aI-75
aI75
aI100
aI70
aI-66
aI48
aI20
aI-78
aI-94
aI-18
aI-60
aI45
aI-70
aI21
aI-19
aI-86
aI61
aI76
aI13
aI-67
aI-3
aI39
aI20
aI-91
aI26
aI-98
aI36
aI3
aI97
aI10
aI-79
aI-1
aI35
aI80
aI-17
aI28
aI14
aI-82
aI8
aI-77
aI78
aI16
aI54
aI-42
aI58
aI-28
aI-45
aI10
aI-34
aI-10
aI30
aI79
aI-60
aI94
aI5
aI94
aI-89
aI85
aI-88
aI97
aI66
aI67
aI-88
aI56
aI-83
aI-62
aI-15
aI12
aI-23
aI-85
aI-17
aI64
aI-19
aI-60
aI-51
aI-13
aI-50
aI75
aI92
aI74
aI-45
aI-46
aI-64
aI96
aI-78
aI50
aI-45
aI32
aI28
aI-79
aI-60
aI-31
aI47
aI-34
aI65
aI-19
aI-25
aI66
aI16
aI-40
aI5
aI-16
aI-2
aI44
aI27
aI-79
aI-94
aI72
aI-41
aI-81
aI81
aI-60
aI41
aI59
aI-5
aI-81
aI27
aI6
aI53
aI11
aI82
aI33
aI1
aI-77
aI-46
aI-43
aI60
aI-60
aI-13
aI97
aI76
aI-24
aI-3
aI37
aI-63
aI64
aI11
aI-68
aI80
aI-77
aI-3
aI92
aI-40
aI-23
aI-65
aI59
aI-89
aI48
aI70
aI65
aI-48
aI-43
aI10
aI-40
aI-88
aI54
aI-86
aI-3
aI22
aI-24
aI-69
aI-86
aI39
aI-44
aI81
aI13
aI-94
aI14
aI20
aI-83
aI-19
aI-100
aI-78
aI-37
aI98
aI-97
aI-83
aI64
aI80
aI89
aI13
aI1
aI78
aI-45
aI-95
aI-43
aI70
aI64
aI92
aI95
aI25
aI98
aI53
aI69
aI8
aI-33
aI21
aI48
aI-80
aI-62
aI-52
aI52
aI-39
aI5
aI-30
aI-32
aI-75
aI-66
aI96
aI95
aI-17
aI67
aI68
aI-82
aI69
aI-92
aI87
aI55
aI-45
aI1
aI-71
aI88
aI-93
aI-49
aI0
aI-58
aI-62
aI2
aI51
aI39
aI-60
aI99
aI-88
aI43
aI-90
aI-94
aI-18
aI52
aI-34
aI-71
aI-51
aI49
aI84
aI96
aI-95
aI94
aI-80
aI15
aI50
aI-14
aI65
aI-46
aI-66
aI91
aI63
aI54
aI2
aI85
aI64
aI-4
aI28
aI73
aI-77
aI-11
aI13
aI-73
aI49
aI-81
aI73
aI62
aI-74
aI77
aI-8
aI3
aI-72
aI97
aI43
aI-81
aI-17
aI93
aI64
aI-72
aI95
aI24
aI-45
aI-13
aI-63
aI-92
aI-48
aI-42
aI52
aI61
aI54
aI10
aI51
aI84
aI-24
aI-6
aI14
aI11
aI-15
aI29
aI-63
aI-56
aI-7
aI48
aI-17
aI71
aI56
aI85
aI-74
aI-3
aI31
aI-70
aI-68
aI67
aI-50
aI65
aI12
aI70
aI-30
aI-59
aI77
aI33
aI-34
aI-53
aI45
aI40
aI92
aI42
aI-60
aI-87
aI95
aI-12
aI37
aI16
aI-80
aI-31
aI-31
aI41
aI56
aI-4
aI-8
aI18
aI17
aI-52
aI-6
aI-25
aI73
aI-15
aI-20
aI-12
aI-47
aI-39
aI76
aI29
aI-11
aI-43
aI3
aI86
aI-21
aI-39
aI41
aI-17
aI-53
aI-41
aI21
aI96
aI28
aI-19
aI26
aI17
aI-82
aI56
aI58
aI-51
aI-74
aI-28
aI48
aI-87
aI91
aI-2
aI83
aI35
aI32
aI-47
aI73
aI-56
aI-38
aI35
aI-89
aI-51
aI-70
aI54
aI-11
aI-45
aI-87
aI88
aI-8
aI-40
aI42
aI-64
aI-60
aI44
aI77
aI10
aI82
aI-40
aI-36
aI-20
aI42
aI-25
aI-23
aI-3
aI-89
aI34
aI-14
aI1
aI82
aI-91
aI62
aI-66
aI94
aI-21
aI-90
aI80
aI-38
aI33
aI-39
aI-71
aI8
aI83
aI62
aI-2
aI2
aI93
aI57
aI-97
aI46
aI47
aI-9
aI-90
aI-23
aI15
aI-25
aI26
aI-65
aI93
aI-25
aI38
aI-88
aI74
aI0
aI-89
aI62
aI-58
aI-83
aI-77
aI-34
aI62
aI-22
aI-19
aI-37
aI-22
aI-81
aI25
aI-3
aI73
aI63
aI97
aI96
aI63
aI57
aI-49
aI-2
aI-22
aI30
aI87
aI100
aI22
aI78
aI-63
aI85
aI-81
aI-81
aI-54
aI-75
aI21
aI-20
aI32
aI71
aI82
aI-98
aI28
aI-2
aI-81
aI100
aI50
aI-93
aI45
aI-75
aI95
aI7
aI81
aI-28
aI-83
aI18
aI80
aI-93
aI-51
aI22
aI-10
aI-100
aI79
aI-92
aI94
aI-12
aI35
aI-11
aI15
aI99
aI0
aI17
aI-96
aI71
aI-62
aI-88
aI84
aI-73
aI25
aI-34
aI37
aI11
aI79
aI84
aI3
aI-1
aI-51
aI-17
aI70
aI46
aI45
aI86
aI58
aI-23
aI25
aI-17
aI-73
aI87
aI-57
aI-66
aI99
aI99
aI-96
aI32
aI98
aI81
aI-63
aI-73
aI39
aI9
aI-7
aI-35
aI-82
aI-100
aI17
aI-46
aI-45
aI-18
aI-76
aI20
aI67
aI-89
aI18
aI49
aI-28
aI28
aI4
aI-3
aI-93
aI74
aI-37
aI-40
aI83
aI-2
aI26
aI95
aI95
aI-39
aI6
aI-58
aI-11
aI36
aI-91
aI-52
aI29
aI61
aI-31
aI16
aI0
aI29
aI-12
aI-57
aI-63
aI-43
aI11
aI-22
aI72
aI-51
aI44
aI-81
aI-2
aI85
aI-4
aI46
aI-80
aI75
aI-25
aI12
aI-19
aI-92
aI-8
aI-67
aI-50
aI-62
aI77
aI88
aI100
aI-55
aI-36
aI91
aI39
aI-51
aI-20
aI-98
aI-76
aI-27
aI-3
aI-2
aI-20
aI1
aI36
aI-76
aI-85
aI-33
aI43
aI82
aI93
aI54
aI-18
aI7
aI18
aI66
aI-45
aI46
aI49
aI-95
aI86
aI-15
aI-21
aI37
aI-86
aI-96
aI24
aI-30
aI-65
aI49
aI-90
aI-30
aI-39
aI-70
aI-65
aI37
aI11
aI-88
aI93
aI81
aI1
aI-54
aI-24
aI52
aI24
aI28
aI-67
aI10
aI-22
aI-40
aI43
aI-77
aI-87
aI0
aI42
aI62
aI35
aI99
aI29
aI61
aI74
aI46
aI58
aI-72
aI85
aI68
aI-80
aI-92
aI-40
aI-97
aI37
aI95
aI-58
aI-3
aI46
aI-70
aI59
aI-64
aI67
aI-98
aI22
aI-68
aI87
aI-6
aI78
aI98
aI94
aI-7
aI37
aI-63
aI59
aI-90
aI-20
aI70
aI66
aI-26
aI53
aI74
aI8
aI20
aI57
aI-19
aI-46
aI98
aI89
aI78
aI-81
aI-75
aI45
aI-24
aI94
aI-52
aI-62
aI96
aI-50
aI52
aI-76
aI-63
aI32
aI-52
aI95
aI94
aI-49
aI-55
aI-78
aI-52
aI-69
aI2
aI62
aI43
aI-35
aI-80
aI14
aI32
aI-73
aI-37
aI29
aI97
aI71
aI-83
aI86
aI-17
aI24
aI-11
aI67
aI-26
aI0
aI-32
aI49
aI76
aI-29
aI-60
aI-89
aI29
aI-59
aI-27
aI-13
aI44
aI-61
aI-40
aI-99
aI-72
aI70
aI-82
aI-8
aI-87
aI69
aI73
aI-46
aI96
aI63
aI40
aI-68
aI76
aI14
aI-42
aI17
aI-76
aI10
aI-87
aI-21
aI-48
aI-21
aI-69
aI38
aI-87
aI-83
aI7
aI83
aI-34
aI-84
aI-87
aI80
aI46
aI-17
aI60
aI4
aI-37
aI56
aI-48
aI99
aI77
aI15
aI11
aI-9
aI-90
aI-5
aI22
aI55
aI-11
aI-70
aI-73
aI-30
aI36
aI-96
aI22
aI-48
aI26
aI-72
aI-6
aI85
aI75
aI-44
aI74
aI83
aI29
aI-53
aI-6
aI-57
aI59
aI-20
aI28
aI-27
aI53
aI97
aI41
aI-4
aI83
aI9
aI-82
aI67
aI-42
aI-32
aI-77
aI10
aI73
aI-49
aI68
aI10
aI-82
aI-90
aI-76
aI-56
aI69
aI-10
aI68
aI74
aI-7
aI93
aI9
aI-10
aI-10
aI-45
aI6
aI-44
aI93
aI57
aI-30
aI-46
aI-14
aI-20
aI-52
aI18
aI29
aI87
aI100
aI-64
aI-74
aI59
aI38
aI50
aI-61
aI-21
aI-60
aI21
aI-77
aI-89
aI95
aI-78
aI-26
aI62
aI-15
aI-85
aI-30
aI26
aI3
aI-28
aI0
aI93
aI95
aI5
aI57
aI63
aI-39
aI-45
aI-93
aI-74
aI-23
aI-62
aI-37
aI-35
aI-23
aI-65
aI94
aI95
aI93
aI66
aI29
aI43
aI-39
aI-70
aI-34
aI3
aI-19
aI81
aI-60
aI18
aI65
aI-21
aI-91
aI-95
aI-77
aI55
aI-58
aI3
aI56
aI-39
aI-4
aI52
aI38
aI34
aI47
aI-39
aI37
aI-60
aI-57
aI93
aI-4
aI-73
aI-79
aI-92
aI-60
aI8
aI16
aI43
aI74
aI-10
aI87
aI12
aI-20
aI94
aI-74
aI-32
aI-15
aI-95
aI31
aI67
aI-86
aI64
aI91
aI-65
aI66
aI9
aI-65
aI24
aI94
aI-61
aI-60
aI86
aI-12
aI57
aI-91
aI-26
aI-55
aI8
aI-43
aI-17
aI-69
aI-27
aI29
aI62
aI-74
aI-77
aI71
aI-20
aI-63
aI71
aI56
aI97
aI-1
aI45
aI-89
aI-42
aI71
aI-76
aI49
aI47
aI33
aI80
aI83
aI62
aI96
aI50
aI49
aI-52
aI97
aI29
aI6
aI26
aI41
aI-78
aI-85
aI-17
aI-54
aI-60
aI-30
aI92
aI-21
aI70
aI-5
aI92
aI-91
aI24
aI24
aI-36
aI80
aI-57
aI94
aI46
aI8
aI-31
aI-22
aI14
aI-90
aI-65
aI-10
aI-96
aI-92
aI-61
aI-34
aI31
aI-54
aI-69
aI35
aI-44
aI-22
aI-51
aI10
aI90
aI-94
aI42
aI37
aI28
aI85
aI-93
aI63
aI-19
aI-87
aI-56
aI-91
aI-57
aI-96
aI18
aI-73
aI-21
aI92
aI53
aI-45
aI51
aI89
aI77
aI-27
aI58
aI-40
aI-73
aI74
aI57
aI61
aI3
aI-49
aI-58
aI57
aI18
aI48
aI52
aI82
aI-27
aI55
aI10
aI49
aI33
aI90
aI69
aI13
aI-56
aI60
aI-27
aI-60
aI28
aI77
aI-61
aI44
aI-66
aI-53
aI58
aI41
aI-8
aI59
aI-32
aI-31
aI68
aI-49
aI-45
aI-8
aI-53
aI-99
aI-62
aI28
aI-97
aI8
aI-70
aI39
aI98
aI70
aI47
aI-80
aI62
aI-27
aI-51
aI-18
aI48
aI54
aI-54
aI-27
aI-53
aI-94
aI21
aI-26
aI65
aI64
aI5
aI34
aI28
aI17
aI36
aI-10
aI44
aI94
aI-49
aI8
aI42
aI63
aI13
aI-11
aI45
aI-16
aI-24
aI34
aI47
aI-59
aI96
aI74
aI9
aI83
aI79
aI-35
aI78
aI2
aI-97
aI-11
aI-99
aI5
aI85
aI98
aI-95
aI-41
aI-56
aI-70
aI-14
aI-8
aI-51
aI-79
aI-38
aI-17
aI-42
aI67
aI85
aI52
aI-73
aI-8
aI-45
aI-73
aI-95
aI50
aI-80
aI-13
aI-54
aI-13
aI-49
aI85
aI83
aI93
aI81
aI-13
aI-11
aI-27
aI-42
aI15
aI46
aI-66
aI-53
aI-15
aI31
aI-29
aI-16
aI13
aI49
aI-9
aI52
aI-77
aI58
aI82
aI79
aI-27
aI32
aI-84
aI-21
aI30
aI22
aI76
aI44
aI-30
aI-21
aI-19
aI-12
aI-8
aI-84
aI-29
aI-36
aI76
aI-79
aI-76
aI17
aI-81
aI63
aI-77
aI-3
aI29
aI88
aI50
aI-63
aI-14
aI-72
aI64
aI67
aI-85
aI-66
aI-96
aI87
aI78
aI82
aI36
aI42
aI-12
aI-17
aI40
aI-50
aI-80
aI98
aI-25
aI84
aI2
aI-49
aI-54
aI26
aI-73
aI-65
aI35
aI-98
aI13
aI-75
aI40
aI51
aI-71
aI42
aI43
aI-31
aI61
aI63
aI40
aI-20
aI22
aI9
aI-92
aI27
aI38
aI-65
aI-49
aI-89
aI74
aI-26
aI-23
aI-21
aI-37
aI60
aI-61
aI2
aI-46
aI-59
aI-11
aI62
aI0
aI-81
aI0
aI-95
aI-15
aI46
aI-97
aI92
aI-83
aI-51
aI-66
aI39
aI-58
aI95
aI0
aI87
aI-48
aI-29
aI56
aI93
aI99
aI77
aI15
aI-90
aI17
aI-19
aI54
aI8
aI56
aI13
aI-6
aI-74
aI-74
aI78
aI-21
aI-67
aI-41
aI1
aI40
aI-18
aI0
aI-50
aI-12
aI-98
aI12
aI-77
aI98
aI39
aI-41
aI-57
aI-33
aI-49
aI-77
aI-87
aI-5
aI68
aI-61
aI30
aI-43
aI-80
aI-38
aI-75
aI93
aI-66
aI-62
aI-84
aI-35
aI66
aI-29
aI80
aI87
aI50
aI60
aI43
aI-51
aI-26
aI-38
aI-13
aI-38
aI-38
aI-58
aI2
aI99
aI-3
aI-19
aI-15
aI-73
aI-34
aI11
aI-86
aI-99
aI-99
aI-8
aI-52
aI62
aI-75
aI-66
aI96
aI-82
aI30
aI-52
aI34
aI-17
aI-99
aI52
aI41
aI-96
aI55
aI-20
aI-14
aI62
aI-45
aI38
aI-28
aI-83
aI35
aI94
aI-27
aI-56
aI2
aI-77
aI13
aI82
aI20
aI88
aI89
aI-96
aI29
aI13
aI77
aI-93
aI95
aI39
aI55
aI-17
aI43
aI-10
aI32
aI23
aI-56
aI32
aI-39
aI-75
aI98
aI79
aI32
aI-1
aI56
aI-85
aI9
aI26
aI64
aI-44
aI-52
aI-56
aI56
aI65
aI13
aI-92
aI-42
aI40
aI30
aI42
aI-78
aI-39
aI-100
aI76
aI1
aI-61
aI-84
aI67
aI51
aI67
aI40
aI-57
aI40
aI-7
aI-42
aI-67
aI-65
aI66
aI-20
aI100
aI-61
aI90
aI-91
aI26
aI5
aI-66
aI62
aI29
aI1
aI-87
aI-65
aI70
aI55
aI55
aI-33
aI60
aI-73
aI95
aI-62
aI14
aI50
aI87
aI-1
aI23
aI-60
aI-27
aI70
aI34
aI-39
aI3
aI30
aI35
aI-10
aI-7
aI87
aI17
aI19
aI-30
aI34
aI11
aI-98
aI-23
aI75
aI-65
aI92
aI-67
aI30
aI-73
aI-13
aI37
aI19
aI-27
aI-17
aI-100
aI64
aI42
aI-59
aI-41
aI13
aI78
aI-34
aI-20
aI19
aI-64
aI55
aI10
aI-61
aI90
aI25
aI88
aI61
aI94
aI46
aI-43
aI38
aI25
aI23
aI31
aI59
aI70
aI7
aI48
aI35
aI-74
aI23
aI-30
aI-39
aI-87
aI89
aI93
aI57
aI-51
aI-65
aI24
aI-7
aI70
aI-65
aI12
aI-66
aI-68
aI35
aI71
aI38
aI-74
aI21
aI10
aI30
aI-46
aI-39
aI-60
aI-55
aI-60
aI85
aI56
aI26
aI-16
aI99
aI4
aI34
aI34
aI-19
aI44
aI-9
aI-71
aI95
aI-23
aI44
aI67
aI96
aI-52
aI63
aI92
aI53
aI26
aI-28
aI54
aI51
aI70
aI51
aI-19
aI93
aI28
aI72
aI6
aI80
aI0
aI22
aI21
aI-36
aI-61
aI32
aI7
aI-7
aI-83
aI-54
aI0
aI49
aI-3
aI-51
aI-31
aI-34
aI-28
aI-82
aI-10
aI-84
aI23
aI-74
aI89
aI36
aI-58
aI58
aI33
aI-91
aI-92
aI89
aI71
aI22
aI-60
aI92
aI99
aI70
aI52
aI50
aI-46
aI-36
aI45
aI49
aI24
aI64
aI3
aI75
aI-69
aI3
aI-27
aI-100
aI11
aI92
aI81
aI66
aI-67
aI-65
aI50
aI-59
aI79
aI-40
aI59
aI88
aI96
aI51
aI55
aI-21
aI-82
aI-89
aI-90
aI8
aI10
aI-14
aI-80
aI-58
aI-44
aI-5
aI-52
aI-97
aI-42
aI4
aI37
aI54
aI88
aI-94
aI41
aI73
aI3
aI-3
aI-3
aI-5
aI53
aI10
aI-66
aI38
aI71
aI6
aI50
aI33
aI-2
aI-46
aI12
aI15
aI67
aI44
aI-7
aI-39
aI90
aI60
aI-87
aI-14
aI2
aI-62
aI48
aI8
aI-48
aI91
aI-52
aI86
aI62
aI-62
aI-71
aI-74
aI94
aI55
aI-17
aI-79
aI-3
aI-44
aI-58
aI-40
aI48
aI-54
aI-43
aI-7
aI73
aI77
aI19
aI14
aI-39
aI-11
aI-33
aI55
aI-15
aI68
aI-86
aI16
aI92
aI48
aI-38
aI-62
aI-19
aI-18
aI-60
aI-53
aI29
aI61
aI-64
aI-33
aI51
aI91
aI24
aI-78
aI4
aI-12
aI-39
aI38
aI-9
aI100
aI27
aI-46
aI-54
aI-83
aI-31
aI-99
aI2
aI-82
aI50
aI46
aI23
aI-90
aI29
aI69
aI-36
aI-67
aI73
aI24
aI-76
aI2
aI-16
aI25
aI-94
aI-93
aI48
aI46
aI92
aI-64
aI79
aI-67
aI-67
aI33
aI45
aI17
aI-53
aI-44
aI84
aI-76
aI93
aI25
aI-57
aI75
aI-75
aI0
aI86
aI-48
aI73
aI-49
aI-90
aI58
aI58
aI-26
aI-81
aI-64
aI-13
aI-93
aI87
aI-29
aI-13
aI28
aI83
aI5
aI42
aI4
aI-40
aI-23
aI36
aI-52
aI3
aI34
aI-66
aI-79
aI59
aI68
aI-47
aI51
aI79
aI-43
aI-14
aI19
aI78
aI41
aI-16
aI-31
aI-53
aI-71
aI-15
aI-38
aI-67
aI-57
aI13
aI56
aI41
aI24
aI-68
aI29
aI63
aI90
aI-34
aI0
aI-38
aI58
aI-15
aI96
aI-79
aI21
aI85
aI88
aI99
aI-18
aI-45
aI-45
aI97
aI-68
aI8
aI-28
aI69
aI97
aI-3
aI-70
aI-93
aI50
aI-50
aI85
aI-51
aI-6
aI18
aI-24
aI38
aI-21
aI60
aI-43
aI56
aI20
aI29
aI-19
aI68
aI-10
aI8
aI22
aI28
aI71
aI77
aI-17
aI-29
aI-48
aI81
aI71
aI1
aI90
aI-22
aI63
aI-32
aI4
aI-87
aI-72
aI98
aI55
aI67
aI34
aI36
aI55
aI-15
aI-95
aI53
aI-54
aI-65
aI47
aI-76
aI34
aI-97
aI-100
aI28
aI80
aI-69
aI43
aI-42
aI-8
aI-96
aI-14
aI-99
aI-84
aI31
aI-35
aI10
aI35
aI-52
aI48
aI84
aI-66
aI-67
aI-13
aI25
aI24
aI-71
aI-71
aI18
aI-67
aI83
aI-81
aI56
aI-34
aI-56
aI-99
aI36
aI-25
aI-99
aI-4
aI98
aI0
aI-34
aI-68
aI63
aI-11
aI-68
aI17
aI-27
aI24
aI0
aI25
aI29
aI16
aI-10
aI-81
aI-92
aI10
aI45
aI-75
aI74
aI-16
aI-3
aI77
aI58
aI-62
aI1
aI-59
aI17
aI-98
aI-86
aI87
aI55
aI2
aI-71
aI42
aI-78
aI25
aI-58
aI65
aI16
aI23
aI-97
aI7
aI96
aI-35
aI62
aI63
aI-94
aI74
aI86
aI-95
aI67
aI-48
aI-94
aI23
aI-36
aI36
aI41
aI96
aI-6
aI27
aI-98
aI81
aI68
aI70
aI17
aI62
aI50
aI-80
aI-83
aI82
aI-69
aI-36
aI32
aI91
aI3
aI-92
aI83
aI-78
aI4
aI-39
aI87
aI-46
aI99
aI9
aI29
aI-69
aI-57
aI97
aI37
aI-54
aI-28
aI-88
aI-48
aI13
aI-100
aI-26
aI26
aI91
aI62
aI30
aI-55
aI21
aI-54
aI6
aI12
aI10
aI-79
aI54
aI90
aI-66
aI-46
aI75
aI-52
aI52
aI-74
aI62
aI-72
aI93
aI-5
aI21
aI47
aI-79
aI44
aI27
aI-93
aI89
aI-93
aI0
aI-40
aI-43
aI-92
aI-15
aI85
aI44
aI52
aI82
aI4
aI9
aI-19
aI-86
aI-4
aI43
aI94
aI51
aI51
aI-55
aI36
aI94
aI-90
aI73
aI-78
aI-85
aI-25
aI-5
aI61
aI-93
aI12
aI52
aI-23
aI-10
aI42
aI5
aI-97
aI46
aI87
aI-47
aI-96
aI75
aI38
aI-58
aI88
aI12
aI-70
aI27
aI14
aI74
aI82
aI-98
aI-51
aI30
aI-52
aI100
aI75
aI-76
aI55
aI50
aI44
aI45
aI-80
aI60
aI24
aI13
aI-29
aI-55
aI33
aI69
aI-23
aI73
aI-17
aI-20
aI-49
aI79
aI-26
aI17
aI81
aI-60
aI-15
aI-15
aI-51
aI96
aI49
aI98
aI21
aI18
aI70
aI-25
aI-7
aI-47
aI67
aI65
aI-93
aI-18
aI56
aI72
aI94
aI-96
aI27
aI-26
aI28
aI-15
aI18
aI-79
aI59
aI-11
aI-3
aI-88
aI-46
aI12
aI-45
aI72
aI14
aI-85
aI46
aI66
aI17
aI5
aI45
aI62
aI77
aI-77
aI-68
aI91
aI46
aI16
aI1
aI-13
aI63
aI36
aI-61
aI26
aI-61
aI-34
aI49
aI-38
aI85
aI-49
aI20
aI-1
aI63
aI52
aI26
aI-25
aI-22
aI-42
aI-27
aI-61
aI-30
aI89
aI22
aI-33
aI-3
aI85
aI88
aI15
aI-72
aI56
aI-36
aI-15
aI-26
aI-70
aI54
aI47
aI45
aI94
aI-81
aI-41
aI-32
aI-46
aI-91
aI30
aI70
aI-27
aI45
aI-39
aI-59
aI-22
aI94
aI-45
aI-43
aI78
aI0
aI72
aI-12
aI-56
aI46
aI-68
aI92
aI-21
aI-25
aI17
aI-25
aI25
aI-12
aI-29
aI-56
aI-60
aI-32
aI-89
aI16
aI-31
aI58
aI57
aI-38
aI22
aI24
aI-34
aI-21
aI-54
aI-18
aI26
aI-50
aI-33
aI-77
aI37
aI-24
aI-3
aI11
aI81
aI-98
aI-59
aI-37
aI12
aI84
aI-51
aI-6
aI-47
aI-86
aI-73
aI-46
aI52
aI80
aI63
aI61
aI-28
aI9
aI22
aI-19
aI29
aI99
aI47
aI37
aI58
aI41
aI36
aI-93
aI-47
aI78
aI8
aI29
aI10
aI66
aI-6
aI15
aI64
aI-41
aI5
aI-85
aI-62
aI28
aI-99
aI-21
aI-45
aI-90
aI-22
aI-99
aI12
aI-59
aI-100
aI-11
aI48
aI56
aI58
aI-62
aI-100
aI-75
aI-59
aI-54
aI-64
aI-44
aI65
aI64
aI57
aI50
aI5
aI-65
aI-94
aI-31
aI16
aI20
aI-70
aI38
aI70
aI64
aI-26
aI0
aI-2
aI83
aI-89
aI84
aI23
aI20
aI55
aI-99
aI-4
aI-76
aI-12
aI-92
aI-64
aI-93
aI-41
aI49
aI-58
aI16
aI18
aI-14
aI-69
aI-6
aI-49
aI-15
aI-25
aI-71
aI-38
aI53
aI52
aI-33
aI-73
aI5
aI-58
aI31
aI-83
aI11
aI-89
aI68
aI-48
aI59
aI-5
aI-32
aI65
aI-40
aI100
aI24
aI80
aI-28
aI45
aI30
aI91
aI25
aI-79
aI77
aI-78
aI29
aI-97
aI-58
aI12
aI-89
aI-20
aI52
aI-70
aI85
aI-76
aI52
aI-93
aI72
aI-27
aI-30
aI4
aI-60
aI-77
aI-76
aI77
aI69
aI54
aI-32
aI-36
aI-24
aI-13
aI-71
aI15
aI38
aI-60
aI44
aI48
aI-91
aI50
aI-98
aI-56
aI91
aI-40
aI4
aI93
aI85
aI-100
aI-34
aI-61
aI84
aI-48
aI-54
aI-2
aI88
aI-75
aI25
aI92
aI-72
aI87
aI72
aI41
aI-40
aI23
aI-27
aI0
aI-10
aI-69
aI-71
aI22
aI44
aI-92
aI-59
aI-38
aI31
aI-32
aI91
aI-10
aI93
aI-77
aI37
aI19
aI80
aI95
aI-83
aI59
aI54
aI-53
aI84
aI-4
aI14
aI20
aI-78
aI24
aI-75
aI66
aI88
aI-34
aI29
aI-89
aI24
aI30
aI-69
aI-81
aI-16
aI57
aI57
aI75
aI63
aI-7
aI43
aI46
aI53
aI-70
aI11
aI-30
aI-55
aI-50
aI47
aI-68
aI9
aI-28
aI-22
aI-70
aI100
aI-30
aI78
aI16
aI79
aI-40
aI-27
aI-27
aI-37
aI-89
aI73
aI37
aI74
aI-23
aI46
aI17
aI34
aI80
aI-45
aI-55
aI61
aI-65
aI-16
aI41
aI-78
aI54
aI-48
aI76
aI59
aI-15
aI19
aI-41
aI68
aI84
aI-83
aI70
aI-21
aI8
aI-19
aI42
aI79
aI19
aI-100
aI-33
aI-73
aI23
aI-59
aI-19
aI-82
aI-56
aI-33
aI-72
aI78
aI68
aI-23
aI31
aI-3
aI-26
aI-28
aI-97
aI23
aI39
aI-61
aI20
aI95
aI88
aI-10
aI-16
aI89
aI-74
aI-14
aI-37
aI53
aI-43
aI-28
aI6
aI45
aI-77
aI-55
aI16
aI47
aI59
aI53
aI31
aI-3
aI-21
aI-65
aI12
aI60
aI0
aI82
aI16
aI85
aI-9
aI85
aI90
aI-65
aI92
aI-14
aI25
aI-37
aI13
aI58
aI-88
aI85
aI-62
aI-53
aI-8
aI-58
aI-54
aI16
aI-94
aI41
aI38
aI48
aI9
aI-32
aI64
aI28
aI-27
aI60
aI30
aI33
aI95
aI-26
aI82
aI-49
aI-83
aI-13
aI41
aI93
aI100
aI61
aI-44
aI26
aI-81
aI-3
aI-42
aI77
aI-23
aI-92
aI20
aI72
aI-95
aI-9
aI-52
aI-35
aI3
aI-39
aI1
aI37
aI-89
aI-36
aI38
aI-38
aI21
aI-19
aI59
aI70
aI4
aI42
aI-19
aI-55
aI81
aI51
aI22
aI-35
aI21
aI61
aI89
aI-20
aI35
aI93
aI46
aI49
aI82
aI85
aI-96
aI-93
aI-93
aI92
aI-63
aI33
aI-72
aI-87
aI86
aI3
aI64
aI3
aI-12
aI95
aI18
aI19
aI-2
aI33
aI99
aI39
aI63
aI6
aI49
aI-69
aI17
aI76
aI27
aI87
aI-17
aI-47
aI-86
aI91
aI72
aI74
aI78
aI-1
aI41
aI-24
aI-94
aI-71
aI-66
aI74
aI-47
aI-97
aI-24
aI-67
aI-6
aI-9
aI69
aI-91
aI13
aI-28
aI-77
aI-51
aI63
aI-14
aI-60
aI-47
aI-27
aI-56
aI-60
aI-25
aI87
aI35
aI-26
aI1
aI43
aI-59
aI-11
aI-60
aI-85
aI27
aI-51
aI97
aI-75
aI-10
aI67
aI98
aI-10
aI-55
aI43
aI-32
aI-84
aI50
aI72
aI27
aI4
aI47
aI-46
aI-73
aI-61
aI7
aI69
aI52
aI47
aI44
aI11
aI18
aI-68
aI-59
aI-95
aI20
aI70
aI-72
aI70
aI-72
aI20
aI-58
aI-46
aI-81
aI89
aI-48
aI-75
aI17
aI-28
aI-82
aI-90
aI97
aI54
aI66
aI-36
aI-4
aI-22
aI-7
aI61
aI5
aI74
aI55
aI-85
aI36
aI-62
aI29
aI-94
aI61
aI-97
aI-63
aI-55
aI38
aI-91
aI-87
aI-46
aI-47
aI87
aI60
aI-12
aI32
aI49
aI-8
aI52
aI-77
aI34
aI-67
aI72
aI-37
aI97
aI-6
aI-72
aI-30
aI94
aI-54
aI-30
aI55
aI-13
aI-51
aI-57
aI78
aI-43
aI38
aI53
aI-44
aI-98
aI-34
aI32
aI-68
aI-79
aI4
aI-23
aI55
aI-15
aI64
aI96
aI-41
aI-17
aI-55
aI-12
aI12
aI41
aI-78
aI2
aI91
aI13
aI9
aI10
aI-77
aI-37
aI76
aI60
aI-57
aI12
aI6
aI-16
aI35
aI-83
aI12
aI12
aI-89
aI-84
aI39
aI-9
aI100
aI36
aI82
aI-83
aI-45
aI-92
aI-58
aI89
aI-7
aI92
aI-51
aI-38
aI-48
aI14
aI-2
aI31
aI-35
aI50
aI0
aI-10
aI-64
aI69
aI16
aI-35
aI-83
aI-84
aI-59
aI58
aI37
aI60
aI32
aI82
aI0
aI44
aI-7
aI-63
aI-40
aI-46
aI39
aI34
aI-100
aI44
aI84
aI-89
aI-60
aI16
aI75
aI58
aI63
aI-66
aI-37
aI99
aI95
aI65
aI52
aI14
aI-46
aI18
aI36
aI67
aI39
aI-65
aI-29
aI-54
aI-62
aI-1
aI-95
aI-54
aI95
aI67
aI5
aI55
aI4
aI67
aI-50
aI2
aI15
aI-77
aI32
aI81
aI76
aI89
aI59
aI5
aI-2
aI36
aI90
aI3
aI-7
aI2
aI-6
aI-68
aI-15
aI-20
aI-62
aI-10
aI-42
aI20
aI80
aI-12
aI74
aI84
aI59
aI10
aI67
aI-79
aI18
aI53
aI-9
aI89
aI3
aI-88
aI88
aI-62
aI37
aI-82
aI-76
aI-20
aI-49
aI-26
aI-65
aI74
aI87
aI-58
aI12
aI-37
aI23
aI3
aI-93
aI-50
aI-46
aI-13
aI34
aI73
aI90
aI70
aI-92
aI-51
aI83
aI-38
aI10
aI-34
aI78
aI-26
aI-83
aI58
aI35
aI-93
aI70
aI16
aI-30
aI25
aI59
aI11
aI-32
aI21
aI-32
aI62
aI13
aI-60
aI17
aI-19
aI-12
aI84
aI86
aI21
aI-35
aI-89
aI49
aI-83
aI22
aI-59
aI62
aI10
aI55
aI78
aI66
aI13
aI49
aI-24
aI-87
aI-28
aI-13
aI80
aI62
aI90
aI79
aI3
aI100
aI52
aI-2
aI-33
aI-55
aI76
aI36
aI-43
aI45
aI-35
aI56
aI-25
aI-70
aI35
aI-64
aI-22
aI-87
aI60
aI-83
aI69
aI0
aI98
aI40
aI-35
aI64
aI32
aI-75
aI68
aI83
aI46
aI59
aI-12
aI-30
aI-7
aI24
aI80
aI42
aI-41
aI57
aI-96
aI84
aI-34
aI-54
aI-80
aI-1
aI-1
aI-100
aI40
aI86
aI-75
aI81
aI-88
aI-33
aI4
aI77
aI-59
aI23
aI52
aI47
aI68
aI45
aI-30
aI-57
aI74
aI87
aI9
aI96
aI88
aI-81
aI-90
aI-30
aI35
aI-64
aI-89
aI24
aI73
aI-91
aI89
aI5
aI-16
aI2
aI-37
aI80
aI-39
aI-70
aI74
aI75
aI59
aI84
aI-32
aI-20
aI59
aI73
aI56
aI-84
aI7
aI70
aI78
aI54
aI-32
aI-2
aI-90
aI-73
aI11
aI-41
aI65
aI5
aI53
aI-21
aI-73
aI94
aI-98
aI-66
aI-90
aI-81
aI-85
aI-31
aI-96
aI-34
aI-39
aI-36
aI-28
aI-92
aI-41
aI4
aI42
aI71
aI-32
aI-2
aI44
aI83
aI-50
aI58
aI-100
aI-85
aI-49
aI75
aI23
aI98
aI-65
aI-32
aI64
aI-56
aI-51
aI-72
aI29
aI33
aI-45
aI97
aI97
aI0
aI93
aI44
aI-26
aI-72
aI-97
aI81
aI77
aI-81
aI-70
aI-60
aI88
aI-11
aI-50
aI34
aI-1
aI73
aI3
aI20
aI87
aI3
aI43
aI10
aI-17
aI-94
aI-58
aI36
aI71
aI56
aI5
aI59
aI-28
aI-94
aI-98
aI-50
aI4
aI11
aI3
aI5
aI36
aI-52
aI100
aI42
aI-5
aI-11
aI-81
aI52
aI-39
aI54
aI5
aI-61
aI-82
aI73
aI-61
aI4
aI-42
aI48
aI-82
aI-68
aI26
aI68
aI-72
aI66
aI-26
aI-33
aI80
aI-46
aI-57
aI-10
aI-99
aI-98
aI-27
aI-88
aI-37
aI26
aI38
aI59
aI45
aI-66
aI-89
aI-52
aI59
aI-97
aI70
aI-56
aI24
aI61
aI-30
aI-52
aI15
aI-55
aI-89
aI-27
aI43
aI-84
aI36
aI-7
aI99
aI60
aI33
aI-100
aI91
aI97
aI99
aI56
aI-89
aI95
aI-77
aI-83
aI-65
aI95
aI72
aI-52
aI48
aI-75
aI-93
aI-44
aI-100
aI-79
aI10
aI-61
aI-67
aI46
aI-72
aI-98
aI-84
aI15
aI-1
aI13
aI92
aI-40
aI-20
aI-55
aI58
aI66
aI81
aI-2
aI49
aI-87
aI86
aI-91
aI-42
aI84
aI-39
aI-74
aI-32
aI1
aI-38
aI-1
aI88
aI89
aI-21
aI-80
aI53
aI91
aI-86
aI62
aI34
aI4
aI-20
aI-38
aI-36
aI-87
aI48
aI96
aI-26
aI29
aI-54
aI-25
aI34
aI-29
aI-94
aI35
aI-88
aI-97
aI1
aI83
aI56
aI61
aI27
aI60
aI-78
aI48
aI-66
aI69
aI-59
aI-97
aI-17
aI-63
aI-62
aI-39
aI17
aI-40
aI-60
aI-59
aI87
aI-46
aI43
aI-96
aI82
aI-2
aI5
aI57
aI-68
aI82
aI17
aI23
aI49
aI-13
aI-14
aI7
aI8
aI-29
aI-88
aI52
aI2
aI-47
aI19
aI-88
aI-77
aI57
aI91
aI49
aI32
aI15
aI30
aI38
aI-13
aI-95
aI-50
aI6
aI-9
aI-8
aI-13
aI55
aI-48
aI78
aI87
aI-65
aI-59
aI1
aI-25
aI62
aI4
aI99
aI40
aI59
aI74
aI28
aI-29
aI-33
aI98
aI-94
aI-89
aI25
aI51
aI92
aI-91
aI75
aI-25
aI-68
aI-61
aI21
aI87
aI84
aI15
aI-82
aI-79
aI35
aI88
aI-46
aI-83
aI39
aI7
aI97
aI47
aI-55
aI12
aI-80
aI39
aI-46
aI3
aI-29
aI93
aI15
aI25
aI-74
aI-5
aI64
aI67
aI-68
aI-79
aI14
aI-35
aI-22
aI-49
aI-68
aI-90
aI1
aI-36
aI-25
aI-92
aI-43
aI83
aI-96
aI0
aI-10
aI-31
aI-93
aI-50
aI18
aI-52
aI61
aI-59
aI65
aI51
aI17
aI-91
aI17
aI-1
aI-96
aI-93
aI-10
aI-4
aI-7
aI22
aI97
aI-82
aI-13
aI-4
aI20
aI-32
aI46
aI-44
aI-42
aI-26
aI46
aI-89
aI6
aI-46
aI-64
aI52
aI0
aI81
aI-93
aI71
aI53
aI54
aI98
aI46
aI81
aI85
aI13
aI-42
aI74
aI33
aI-91
aI8
aI88
aI-20
aI-86
aI32
aI-50
aI12
aI5
aI-24
aI-50
aI-75
aI74
aI44
aI28
aI96
aI-32
aI79
aI8
aI-9
aI99
aI21
aI-30
aI61
aI94
aI57
aI-51
aI-29
aI-86
aI92
aI-21
aI33
aI-74
aI51
aI-27
aI81
aI54
aI16
aI-45
aI6
aI97
aI-87
aI88
aI-31
aI89
aI56
aI76
aI-44
aI46
aI-68
aI12
aI-3
aI87
aI-93
aI-63
aI90
aI-59
aI26
aI80
aI12
aI99
aI96
aI-76
aI89
aI-82
aI64
aI44
aI-60
aI58
aI-21
aI53
aI54
aI-29
aI-56
aI29
aI-72
aI67
aI13
aI99
aI-52
aI20
aI37
aI-10
aI-8
aI58
aI-39
aI39
aI-38
aI-87
aI-23
aI-20
aI12
aI54
aI-100
aI-80
aI-35
aI-86
aI6
aI-48
aI90
aI43
aI-84
aI-2
aI70
aI87
aI-48
aI-92
aI28
aI78
aI67
aI70
aI3
aI39
aI-63
aI-81
aI97
aI-20
aI93
aI-71
aI88
aI-66
aI-95
aI1
aI20
aI-93
aI-96
aI15
aI-24
aI-31
aI35
aI38
aI-81
aI20
aI88
aI20
aI-56
aI53
aI-67
aI60
aI67
aI78
aI25
aI44
aI84
aI59
aI92
aI-17
aI35
aI-22
aI-43
aI62
aI-91
aI-59
aI-11
aI89
aI-31
aI-79
aI69
aI-57
aI37
aI-87
aI58
aI59
aI-31
aI31
aI85
aI73
aI-18
aI-57
aI-32
aI79
aI75
aI-13
aI-2
aI-70
aI-92
aI-92
aI31
aI59
aI85
aI-30
aI-24
aI-73
aI-19
aI-16
aI40
aI90
aI13
aI-61
aI-27
aI-57
aI-37
aI72
aI-49
aI28
aI-38
aI71
aI61
aI67
aI-53
aI-62
aI-30
aI-79
aI17
aI54
aI-54
aI-51
aI-67
aI-58
aI-15
aI69
aI-11
aI38
aI22
aI42
aI-90
aI87
aI-86
aI-29
aI-59
aI-28
aI98
aI38
aI-68
aI38
aI-81
aI42
aI44
aI75
aI-22
aI-53
aI-40
aI-50
aI-70
aI-61
aI98
aI-28
aI-85
aI33
aI4
aI-55
aI30
aI45
aI27
aI-100
aI25
aI81
aI-14
aI-27
aI56
aI-46
aI-67
aI-86
aI19
aI14
aI-87
aI-48
aI-77
aI-93
aI-10
aI100
aI-27
aI-31
aI66
aI-59
aI81
aI-39
aI0
aI23
aI54
aI75
aI15
aI-81
aI87
aI-6
aI74
aI90
aI-6
aI23
aI-68
aI-67
aI54
aI-50
aI-94
aI-100
aI32
aI20
aI1
aI-60
aI-42
aI67
aI-46
aI-84
aI-54
aI25
aI-60
aI69
aI-20
aI13
aI84
aI23
aI43
aI-44
aI64
aI94
aI3
aI4
aI72
aI63
aI-71
aI11
aI-25
aI-79
aI-4
aI12
aI-32
aI86
aI10
aI1
aI47
aI-65
aI-86
aI-44
aI23
aI-53
aI-65
aI-96
aI38
aI-10
aI-43
aI-89
aI-4
aI22
aI68
aI-47
aI-4
aI5
aI-10
aI-29
aI-58
aI61
aI17
aI34
aI90
aI51
aI-16
aI20
aI-37
aI-83
aI49
aI3
aI12
aI93
aI-5
aI38
aI-66
aI-61
aI-82
aI-12
aI-9
aI41
aI15
aI-50
aI49
aI-16
aI93
aI6
aI-18
aI-88
aI-42
aI94
aI32
aI-69
aI-5
aI87
aI1
aI-26
aI-67
aI19
aI-14
aI-66
aI27
aI67
aI-28
aI36
aI83
aI-23
aI91
aI16
aI30
aI-70
aI28
aI-84
aI22
aI14
aI27
aI92
aI-70
aI-37
aI42
aI93
aI-69
aI23
aI96
aI41
aI-90
aI47
aI-60
aI38
aI10
aI-4
aI21
aI5
aI35
aI-76
aI-41
aI70
aI68
aI38
aI78
aI60
aI-12
aI-48
aI90
aI-20
aI60
aI-2
aI36
aI61
aI-36
aI-67
aI45
aI-79
aI59
aI2
aI66
aI92
aI94
aI-11
aI-41
aI54
aI-52
aI-91
aI83
aI-84
aI-39
aI34
aI21
aI80
aI-29
aI26
aI-38
aI-23
aI70
aI-63
aI-86
aI94
aI-43
aI58
aI55
aI2
aI-61
aI-99
aI-20
aI-98
aI-90
aI-59
aI37
aI48
aI12
aI-41
aI62
aI100
aI-24
aI26
aI61
aI-26
aI30
aI57
aI-88
aI-85
aI76
aI-90
aI-94
aI-93
aI-20
aI-57
aI100
aI15
aI50
aI60
aI47
aI-8
aI-93
aI20
aI44
aI-60
aI51
aI27
aI-97
aI-74
aI85
aI19
aI-36
aI66
aI-31
aI-85
aI0
aI94
aI-72
aI34
aI27
aI-56
aI-18
aI-85
aI-29
aI79
aI-71
aI-2
aI-14
aI-97
aI-92
aI-14
aI54
aI19
aI-80
aI-41
aI21
aI-50
aI89
aI-89
aI-83
aI50
aI97
aI16
aI-7
aI28
aI40
aI77
aI93
aI46
aI-84
aI-33
aI24
aI48
aI43
aI-90
aI-83
aI-9
aI-97
aI98
aI-81
aI-42
aI12
aI17
aI74
aI-70
aI-20
aI86
aI-54
aI-83
aI-67
aI-75
aI11
aI83
aI-51
aI-48
aI-16
aI-24
aI-64
aI-57
aI-96
aI94
aI-79
aI96
aI-21
aI-47
aI-67
aI40
aI-91
aI94
aI-45
aI-18
aI66
aI-21
aI-39
aI83
aI-22
aI36
aI-60
aI-91
aI13
aI20
aI44
aI-53
aI44
aI62
aI40
aI71
aI83
aI-47
aI-23
aI63
aI8
aI40
aI29
aI-39
aI-83
aI96
aI14
aI11
aI-6
aI14
aI-29
aI-84
aI-33
aI89
aI58
aI76
aI38
aI15
aI63
aI29
aI47
aI41
aI54
aI-20
aI87
aI-46
aI-21
aI-33
aI49
aI-19
aI-32
aI25
aI50
aI22
aI-12
aI-97
aI-13
aI49
aI88
aI97
aI-16
aI-24
aI-68
aI-67
aI-67
aI-54
aI94
aI5
aI34
aI36
aI80
aI27
aI78
aI-14
aI68
aI-49
aI-51
aI56
aI97
aI69
aI-50
aI-27
aI-50
aI-19
aI-16
aI-11
aI79
aI54
aI83
aI-26
aI-52
aI-47
aI34
aI3
aI-65
aI-37
aI-36
aI-19
aI40
aI18
aI59
aI-69
aI-31
aI64
aI39
aI-90
aI88
aI-16
aI-63
aI56
aI-84
aI-74
aI56
aI2
aI25
aI96
aI-43
aI-68
aI2
aI19
aI91
aI74
aI-70
aI6
aI21
aI80
aI90
aI91
aI-95
aI2
aI65
aI64
aI10
aI12
aI-40
aI-20
aI-21
aI43
aI14
aI-73
aI25
aI59
aI34
aI23
aI-2
aI56
aI49
aI-11
aI60
aI57
aI77
aI75
aI99
aI51
aI-97
aI43
aI4
aI-92
aI82
aI53
aI76
aI-86
aI93
aI74
aI32
aI-12
aI-55
aI-64
aI83
aI-32
aI-64
aI78
aI-51
aI-96
aI-26
aI30
aI69
aI43
aI0
aI33
aI86
aI-44
aI-71
aI-4
aI-2
aI7
aI27
aI60
aI-41
aI62
aI11
aI78
aI76
aI-5
aI-63
aI81
aI13
aI10
aI34
aI24
aI-83
aI26
aI-23
aI73
aI64
aI98
aI-80
aI-58
aI-53
aI-92
aI4
aI36
aI-90
aI-14
aI48
aI5
aI-90
aI3
aI3
aI51
aI37
aI-60
aI38
aI96
aI-9
aI-20
aI45
aI-27
aI86
aI9
aI62
aI-86
aI40
aI-25
aI6
aI46
aI-95
aI9
aI8
aI46
aI-10
aI68
aI-35
aI39
aI94
aI-72
aI77
aI-78
aI27
aI-42
aI-70
aI-61
aI79
aI54
aI-81
aI-86
aI-44
aI80
aI90
aI-31
aI23
aI-63
aI7
aI6
aI-73
aI96
aI-81
aI9
aI92
aI-40
aI-11
aI26
aI43
aI-1
aI-87
aI25
aI94
aI-59
aI-69
aI-8
aI-88
aI76
aI50
aI95
aI-74
aI76
aI43
aI80
aI-46
aI-86
aI-88
aI82
aI-17
aI68
aI42
aI19
aI33
aI99
aI-45
aI54
aI17
aI-71
aI34
aI72
aI15
aI-69
aI-88
aI-96
aI-44
aI63
aI-92
aI13
aI65
aI-6
aI24
aI-54
aI-4
aI-47
aI2
aI5
aI-45
aI35
aI-69
aI88
aI5
aI-69
aI-17
aI71
aI-53
aI59
aI59
aI88
aI19
aI-23
aI-85
aI-95
aI-61
aI81
aI-78
aI-66
aI-83
aI-95
aI14
aI36
aI-52
aI30
aI22
aI91
aI-67
aI-84
aI-52
aI23
aI-80
aI-37
aI-17
aI75
aI-85
aI-27
aI71
aI-93
aI-35
aI-94
aI46
aI-97
aI-25
aI86
aI-44
aI-87
aI-72
aI96
aI-29
aI-13
aI21
aI12
aI0
aI36
aI6
aI33
aI21
aI-65
aI54
aI-50
aI64
aI58
aI-48
aI80
aI60
aI100
aI-19
aI-4
aI58
aI-81
aI5
aI-98
aI15
aI28
aI24
aI87
aI38
aI-21
aI-22
aI87
aI-99
aI-47
aI-64
aI-87
aI-55
aI-87
aI-43
aI-69
aI53
aI13
aI-71
aI-16
aI-62
aI54
aI34
aI4
aI-43
aI-62
aI-34
aI96
aI-45
aI28
aI-30
aI-13
aI-91
aI-44
aI-74
aI72
aI-15
aI97
aI77
aI-36
aI6
aI55
aI-84
aI-72
aI-27
aI-93
aI-66
aI17
aI88
aI-37
aI-56
aI51
aI25
aI-7
aI-4
aI-1
aI16
aI69
aI-40
aI-84
aI-16
aI44
aI-68
aI-80
aI26
aI-100
aI-54
aI89
aI-21
aI56
aI84
aI67
aI29
aI-77
aI-51
aI-84
aI-9
aI-89
aI88
aI-66
aI83
aI-46
aI40
aI-14
aI91
aI-78
aI60
aI94
aI31
aI10
aI-49
aI-51
aI-96
aI-2
aI68
aI67
aI20
aI-34
aI69
aI50
aI53
aI59
aI76
aI-2
aI86
aI-27
aI51
aI68
aI22
aI-96
aI56
aI69
aI67
aI-92
aI9
aI83
aI-78
aI85
aI7
aI16
aI61
aI99
aI76
aI-89
aI-29
aI27
aI82
aI-55
aI-93
aI-61
aI52
aI-25
aI48
aI40
aI51
aI28
aI-4
aI38
aI42
aI85
aI-25
aI95
aI-38
aI-86
aI38
aI-61
aI-44
aI9
aI-24
aI32
aI-35
aI74
aI89
aI-3
aI31
aI-88
aI66
aI41
aI-81
aI57
aI-72
aI86
aI66
aI-61
aI-50
aI-40
aI53
aI68
aI59
aI-21
aI-40
aI-46
aI-91
aI20
aI96
aI-27
aI2
aI-29
aI-7
aI71
aI27
aI-58
aI43
aI-14
aI84
aI-51
aI45
aI-73
aI-12
aI-58
aI81
aI9
aI-35
aI20
aI-31
aI-72
aI-82
aI65
aI-15
aI1
aI-8
aI44
aI-47
aI12
aI64
aI-49
aI-44
aI23
aI44
aI90
aI62
aI11
aI-72
aI-51
aI53
aI-42
aI-57
aI-73
aI-1
aI12
aI-39
aI-18
aI-98
aI15
aI-67
aI90
aI58
aI-5
aI96
aI76
aI39
aI-65
aI30
aI56
aI65
aI38
aI29
aI-78
aI41
aI7
aI70
aI98
aI79
aI-8
aI-10
aI49
aI-38
a.