(lp0
I92
aI67
aI6
aI48
aI49
aI79
aI98
aI97
aI14
aI13
aI78
aI83
aI95
aI43
aI89
aI28
aI44
aI95
aI55
aI70
aI15
aI93
aI59
aI4
aI96
aI39
aI34
aI33
aI16
aI99
aI18
aI92
aI2
aI75
aI32
aI49
aI56
aI68
aI46
aI66
aI54
aI28
aI35
aI60
aI73
aI28
aI58
aI21
aI33
aI71
aI76
aI32
aI96
aI45
aI78
aI63
aI67
aI74
aI85
aI98
aI35
aI35
aI30
aI29
aI81
aI14
aI95
aI50
aI17
aI36
aI25
aI73
aI92
aI40
aI10
aI82
aI53
aI33
aI79
aI46
aI9
aI28
aI76
aI71
aI93
aI3
aI73
aI18
aI32
aI5
aI43
aI1
aI9
aI41
aI65
aI4
aI46
aI84
aI20
aI22
aI11
aI59
aI99
aI60
aI75
aI56
aI65
aI70
aI60
aI8
aI8
aI2
aI80
aI29
aI38
aI58
aI75
aI66
aI0
aI81
aI49
aI24
aI4
aI43
aI27
aI67
aI50
aI36
aI92
aI54
aI14
aI99
aI56
aI45
aI94
aI13
aI85
aI74
aI51
aI78
aI5
aI89
aI90
aI79
aI27
aI49
aI70
aI12
aI96
aI46
aI20
aI74
aI44
aI46
aI19
aI13
aI74
aI28
aI54
aI35
aI9
aI93
aI38
aI57
aI49
aI77
aI33
aI90
aI93
aI88
aI24
aI96
aI16
aI8
aI37
aI74
aI72
aI76
aI45
aI67
aI6
aI46
aI3
aI85
aI74
aI82
aI53
aI16
aI48
aI31
aI34
aI57
aI54
aI33
aI32
aI71
aI31
aI30
aI13
aI8
aI43
aI10
aI6
aI96
aI42
aI58
aI49
aI40
aI23
aI28
aI13
aI0
aI11
aI17
aI58
aI63
aI5
aI56
aI77
aI69
aI53
aI30
aI83
aI9
aI91
aI1
aI98
aI91
aI52
aI92
aI87
aI99
aI42
aI54
aI44
aI42
aI57
aI47
aI69
aI42
aI36
aI57
aI51
aI25
aI97
aI71
aI4
aI67
aI20
aI40
aI44
aI29
aI99
aI47
aI94
aI92
aI92
aI67
aI96
aI41
aI83
aI64
aI33
aI25
aI11
aI69
aI25
aI20
aI62
aI16
aI10
aI59
aI97
aI33
aI46
aI19
aI48
aI3
aI51
aI45
aI99
aI6
aI20
aI66
aI93
aI84
aI73
aI6
aI81
aI88
aI58
aI30
aI92
aI96
aI71
aI48
aI7
aI13
aI52
aI12
aI78
aI64
aI28
aI3
aI18
aI60
aI84
aI69
aI6
aI80
aI21
aI53
aI87
aI29
aI88
aI86
aI9
aI0
aI4
aI37
aI92
aI42
aI44
aI8
aI21
aI65
aI99
aI99
aI80
aI36
aI97
aI54
aI40
aI63
aI42
aI37
aI80
aI84
aI54
aI71
aI10
aI100
aI22
aI48
aI14
aI0
aI69
aI86
aI31
aI74
aI97
aI20
aI72
aI11
aI89
aI63
aI81
aI64
aI99
aI43
aI53
aI77
aI21
aI71
aI47
aI74
aI70
aI80
aI77
aI91
aI79
aI90
aI71
aI11
aI18
aI74
aI57
aI77
aI40
aI14
aI72
aI9
aI96
aI4
aI31
aI79
aI33
aI18
aI74
aI33
aI1
aI25
aI40
aI47
aI91
aI88
aI6
aI23
aI14
aI91
a.