(lp0
I-50
aI64
aI-14
aI86
aI19
aI-44
aI78
aI-3
aI100
aI21
aI55
aI9
aI-95
aI-11
aI69
aI-90
aI-100
aI-17
aI30
aI-82
aI-90
aI-90
aI94
aI3
aI31
aI-59
aI-88
aI87
aI53
aI72
aI70
aI61
aI69
aI-81
aI53
aI26
aI19
aI-86
aI-83
aI-4
aI-56
aI-69
aI-75
aI-56
aI83
aI-90
aI-4
aI100
aI-78
aI-82
aI78
aI-59
aI83
aI40
aI23
aI94
aI-81
aI62
aI80
aI8
aI37
aI71
aI83
aI93
aI74
aI95
aI-72
aI-37
aI-76
aI23
aI-13
aI-93
aI17
aI23
aI32
aI58
aI66
aI73
aI94
aI74
aI-81
aI51
aI-78
aI47
aI91
aI-23
aI-6
aI-27
aI66
aI-25
aI71
aI-96
aI60
aI-96
aI-98
aI80
aI80
aI73
aI41
aI-18
aI-61
aI-21
aI-92
aI15
aI-88
aI-22
aI87
aI-81
aI-67
aI97
aI-65
aI-78
aI52
aI5
aI21
aI-86
aI57
aI-15
aI9
aI58
aI-1
aI79
aI-87
aI32
aI72
aI-8
aI31
aI0
aI85
aI17
aI26
aI-68
aI-27
aI50
aI-23
aI-10
aI-69
aI34
aI-94
aI-63
aI-42
aI2
aI-1
aI-25
aI28
aI-5
aI63
aI40
aI-74
aI-80
aI-22
aI71
aI-91
aI31
aI-29
aI-22
aI-50
aI64
aI60
aI-74
aI-47
aI86
aI-3
aI20
aI-60
aI-25
aI-23
aI-22
aI-15
aI-50
aI-10
aI-24
aI-10
aI28
aI-15
aI-78
aI-23
aI34
aI19
aI65
aI60
aI-10
aI52
aI-10
aI-4
aI37
aI56
aI85
aI41
aI97
aI86
aI-21
aI41
aI-6
aI-18
aI-75
aI-41
aI-23
aI-22
aI92
aI-48
aI-52
aI-89
aI89
aI-3
aI100
aI-17
aI28
aI86
aI-7
aI78
aI17
aI25
aI-87
aI-28
aI14
aI62
aI-34
aI2
aI-62
aI2
aI69
aI37
aI36
aI-65
aI9
aI59
aI91
aI73
aI-54
aI-34
aI-35
aI54
aI82
aI-42
aI-35
aI19
aI-83
aI-72
aI37
aI70
aI-86
aI7
aI-93
aI-8
aI1
aI74
aI35
aI-94
aI-64
aI8
aI21
aI-45
aI-29
aI15
aI59
aI-18
aI-90
aI34
aI72
aI96
aI-4
aI96
aI-3
aI-92
aI67
aI-74
aI39
aI-42
aI56
aI34
aI-75
aI-96
aI92
aI27
aI1
aI31
aI-23
aI-39
aI-44
aI-48
aI-33
aI68
aI-32
aI-92
aI27
aI50
aI87
aI87
aI-61
aI83
aI-94
aI38
aI79
aI94
aI72
aI-55
aI-47
aI-90
aI14
aI99
aI68
aI-14
aI-100
aI-65
aI-32
aI-63
aI-68
aI-53
aI100
aI67
aI-52
aI26
aI11
aI-83
aI36
aI-37
aI82
aI-24
aI64
aI46
aI45
aI-71
aI-9
aI63
aI-44
aI-53
aI99
aI34
aI-33
aI-67
aI-48
aI58
aI-98
aI0
aI69
aI-94
aI-37
aI-7
aI-83
aI-80
aI30
aI39
aI74
aI83
aI42
aI-17
aI-80
aI-6
aI-19
aI68
aI-95
aI64
aI-31
aI-82
aI-24
aI57
aI-11
aI-32
aI91
aI1
aI-72
aI-61
aI9
aI56
aI12
aI-72
aI-52
aI5
aI-83
aI-6
aI7
aI25
aI-54
aI94
aI71
aI31
aI49
aI93
aI-27
aI-65
aI-26
aI68
aI72
aI9
aI-51
aI90
aI55
aI17
aI17
aI-50
aI8
aI-57
aI86
aI83
aI-22
aI-82
aI81
aI-44
aI-97
aI-34
aI19
aI-57
aI59
aI-2
aI10
aI71
aI-15
aI63
aI-55
aI43
aI-93
aI-63
aI-11
aI94
aI-46
aI97
aI83
aI19
aI54
aI4
aI-71
aI0
aI56
aI-90
aI-77
aI61
aI39
aI32
aI-1
aI8
aI-42
aI48
aI74
aI24
aI48
aI23
aI-47
aI53
aI-61
aI-26
aI-24
aI-96
aI-31
aI-21
aI-9
aI55
aI11
aI76
aI-23
aI56
aI7
aI-41
aI20
aI-59
aI46
aI100
aI85
aI68
aI-69
aI26
aI-45
aI-22
aI-4
aI-67
aI-58
aI72
aI44
aI-85
aI-97
aI80
aI-83
aI-11
aI72
aI67
aI50
aI-66
aI23
aI-34
aI85
aI-85
aI5
aI-49
aI31
aI-37
aI-27
aI-15
aI85
aI34
aI15
aI82
aI-88
aI75
aI7
aI-84
aI72
aI38
aI88
aI13
aI-69
aI-91
aI23
aI-27
aI21
aI56
aI62
aI60
aI-64
aI-55
aI71
aI-30
aI59
aI44
aI-31
aI-97
aI-63
aI-48
aI-46
aI-17
aI40
aI67
aI11
aI66
aI-61
aI93
aI52
aI60
aI45
aI96
aI88
aI-9
aI8
aI85
aI-66
aI-77
aI87
aI75
aI-58
aI-56
aI-40
aI-65
aI2
aI-5
aI3
aI-13
aI-16
aI-98
aI-44
aI97
aI-73
aI-34
aI-32
aI2
aI7
aI27
aI-47
aI-77
aI80
aI-52
aI-40
aI5
aI-43
aI-51
aI69
aI-31
aI-25
aI-79
aI-52
aI11
aI-29
aI51
aI61
aI61
aI2
aI27
aI-41
aI-57
aI-88
aI-73
aI-84
aI48
aI25
aI-20
aI-58
aI-75
aI-87
aI12
aI95
aI50
aI100
aI-67
aI-78
aI-33
aI-4
aI38
aI-86
aI65
aI-11
aI-98
aI-22
aI88
aI56
aI-48
aI46
aI-50
aI-25
aI-86
aI-91
aI-86
aI-87
aI74
aI-48
aI91
aI7
aI33
aI-36
aI-100
aI-92
aI-16
aI75
aI-45
aI-6
aI-47
aI-41
aI-20
aI-56
aI38
aI-47
aI64
aI-48
aI-6
aI17
aI50
aI16
aI-28
aI-28
aI100
aI-26
aI-62
aI-29
aI-94
aI-57
aI-87
aI-11
aI-40
aI52
aI-71
aI-75
aI13
aI38
aI-7
aI-73
aI71
aI96
aI-91
aI79
aI-90
aI45
aI-44
aI-27
aI-21
aI27
aI-2
aI-57
aI-20
aI-12
aI-18
aI60
aI-5
aI18
aI-56
aI-77
aI27
aI74
aI42
aI-25
aI-72
aI-5
aI96
aI-79
aI-7
aI92
aI-15
aI16
aI73
aI-31
aI40
aI-15
aI70
aI87
aI71
aI-35
aI-28
aI25
aI-72
aI-82
aI99
aI-31
aI-30
aI-96
aI-60
aI46
aI-95
aI-93
aI-12
aI48
aI-8
aI-24
aI84
aI-94
aI43
aI43
aI53
aI66
aI96
aI15
aI5
aI-56
aI-50
aI-83
aI-71
aI-96
aI38
aI27
aI15
aI-98
aI-72
aI-80
aI-57
aI10
aI5
aI42
aI-37
aI-98
aI15
aI-51
aI51
aI6
aI-98
aI48
aI-46
aI-28
aI63
aI30
aI44
aI-60
aI-90
aI-67
aI61
aI-42
aI-11
aI35
aI-88
aI79
aI16
aI72
aI-90
aI-79
aI-49
aI-19
aI88
aI-100
aI7
aI-82
aI-89
aI-55
aI36
aI-89
aI72
aI-87
aI-1
aI36
aI-13
aI-14
aI69
aI-72
aI-71
aI-35
aI-27
aI40
aI31
aI-40
aI18
aI51
aI-60
aI-75
aI-7
aI49
aI63
aI41
aI96
aI-72
aI-36
aI-32
aI12
aI-35
aI-15
aI73
aI31
aI-14
aI-28
aI-57
aI12
aI-91
aI15
aI-29
aI0
aI-75
aI73
aI-55
aI-25
aI53
aI56
aI-23
aI-47
aI-79
aI-46
aI-67
aI54
aI0
aI57
aI-91
aI-31
aI78
aI-11
aI18
aI57
aI-19
aI-98
aI-90
aI-23
aI-58
aI-44
aI-6
aI52
aI-75
aI-21
aI-73
aI-17
aI-45
aI-71
aI38
aI18
aI86
aI21
aI-35
aI-30
aI52
aI-80
aI70
aI100
aI-90
aI-15
aI29
aI42
aI-44
aI69
aI-38
aI65
aI27
aI-29
aI19
aI-50
aI56
aI-8
aI-48
aI-9
aI77
aI-25
aI-77
aI-44
aI71
aI68
aI84
aI67
aI-88
aI-36
aI-43
aI72
aI95
aI-73
aI44
aI-16
aI13
aI-97
aI94
aI-55
aI45
aI-92
aI-68
aI68
aI-76
aI95
aI-80
aI63
aI40
aI-95
aI19
aI-58
aI96
aI-89
aI-9
aI44
aI22
aI-92
aI42
aI-57
aI14
aI-78
aI32
aI-48
aI-48
aI-42
aI30
aI-72
aI-100
aI-8
aI54
aI-30
aI-77
aI92
aI16
aI4
aI-31
aI31
aI47
aI-63
aI75
aI-96
aI-41
aI-95
aI16
aI65
aI77
aI41
aI48
aI-7
aI-19
aI52
aI-82
aI54
aI87
aI52
aI-17
aI-91
aI-93
aI-29
aI66
aI55
aI80
aI-92
aI4
aI-41
aI67
aI-8
aI15
aI52
aI33
aI25
aI-54
aI85
aI-20
aI-65
aI99
aI-46
aI-73
aI0
aI3
aI-81
aI-34
aI-8
aI4
aI-82
aI35
aI93
aI9
aI-25
aI83
aI-76
aI-45
aI37
aI60
aI-15
aI-29
aI-81
aI89
aI-9
aI52
aI13
aI52
aI-98
aI-93
aI38
aI40
aI72
aI65
aI-50
aI48
aI-56
aI-80
aI-48
aI25
aI96
aI-74
aI86
aI-78
aI-37
aI-85
aI-92
aI44
aI-79
aI-24
aI-35
aI-46
aI-56
aI-22
aI-44
aI-99
aI10
aI-53
aI3
aI34
aI-96
aI-80
aI69
aI-90
aI48
aI76
aI48
aI-25
aI-21
aI51
aI90
aI-27
aI71
aI52
aI91
aI-74
aI-5
aI-72
aI42
aI68
aI78
aI-58
aI-82
aI-100
aI2
aI76
aI-57
aI-83
aI47
aI38
aI36
aI43
aI64
aI48
aI88
aI42
aI33
aI95
aI-27
aI90
aI33
aI87
aI11
aI34
aI61
aI-23
aI-95
aI-10
aI-19
aI77
aI-42
aI58
aI-69
aI-30
aI-63
aI-25
aI78
aI59
aI-59
aI11
aI80
aI-10
aI-55
aI51
aI28
aI38
aI-86
aI-18
aI75
aI-57
aI8
aI-64
aI81
aI64
aI-56
aI-8
aI-52
aI-100
aI-96
aI21
aI83
aI30
aI2
aI97
aI83
aI-68
aI-96
aI-33
aI-6
aI-12
aI69
aI2
aI66
aI49
aI-33
aI-3
aI-70
aI48
aI57
aI27
aI-23
aI-52
aI39
aI60
aI38
aI-97
aI11
aI11
aI-69
aI97
aI84
aI44
aI37
aI66
aI44
aI-95
aI-58
aI-85
aI-49
aI57
aI-55
aI-71
aI62
aI37
aI14
aI67
aI27
aI-93
aI-65
aI68
aI-44
aI45
aI-48
aI-81
aI99
aI52
aI-94
aI50
aI11
aI-64
aI-16
aI-48
aI-84
aI29
aI18
aI-51
aI-85
aI56
aI-39
aI-63
aI-19
aI66
aI30
aI74
aI68
aI69
aI49
aI-54
aI60
aI27
aI11
aI-83
aI81
aI-1
aI-56
aI89
aI92
aI88
aI-62
aI84
aI41
aI-43
aI95
aI-25
aI49
aI-70
aI52
aI53
aI18
aI-75
aI84
aI-91
aI5
aI8
aI42
aI-12
aI12
aI54
aI65
aI-34
aI54
aI-79
aI-36
aI-11
aI-97
aI-91
aI-62
aI-30
aI-43
aI-84
aI7
aI58
aI45
aI48
aI-66
aI-95
aI-50
aI-56
aI-81
aI81
aI-38
aI2
aI-4
aI74
aI75
aI55
aI-43
aI-76
aI42
aI31
aI63
aI-61
aI-28
aI26
aI45
aI29
aI-29
aI84
aI-91
aI41
aI0
aI-13
aI8
aI94
aI-36
aI-44
aI-43
aI74
aI62
aI-23
aI6
aI-53
aI-60
aI-41
aI25
aI55
aI73
aI-54
aI-26
aI88
aI29
aI-12
aI-84
aI-64
aI-64
aI82
aI-1
aI-83
aI85
aI-16
aI31
aI77
aI40
aI-91
aI-39
aI54
aI-77
aI49
aI29
aI12
aI-62
aI-92
aI99
aI63
aI30
aI84
aI4
aI40
aI-96
aI-87
aI-1
aI-41
aI-75
aI75
aI-84
aI59
aI41
aI-65
aI-53
aI-4
aI-58
aI69
aI-3
aI91
aI100
aI90
aI-71
aI2
aI-46
aI-14
aI-48
aI30
aI14
aI70
aI-63
aI-61
aI-5
aI40
aI-31
aI-31
aI100
aI15
aI4
aI77
aI16
aI-52
aI-71
aI10
aI76
aI70
aI-58
aI-21
aI-7
aI75
aI-46
aI44
aI37
aI32
aI18
aI99
aI29
aI66
aI62
aI46
aI-20
aI-97
aI50
aI81
aI40
aI25
aI-78
aI39
aI53
aI-23
aI-89
aI93
aI-39
aI26
aI66
aI91
aI74
aI-6
aI53
aI94
aI-44
aI74
aI-20
aI-67
aI-2
aI-26
aI75
aI3
aI-99
aI47
aI-34
aI-87
aI2
aI-23
aI54
aI65
aI95
aI-65
aI-40
aI-24
aI-84
aI19
aI-67
aI66
aI-51
aI-87
aI-34
aI-54
aI-15
aI-78
aI10
aI-94
aI59
aI-49
aI-42
aI-51
aI50
aI50
aI100
aI12
aI0
aI46
aI-50
aI41
aI-40
aI91
aI-92
aI-90
aI-26
aI-63
aI-5
aI-52
aI-28
aI-5
aI-45
aI-16
aI70
aI-3
aI-58
aI-99
aI-68
aI-78
aI-38
aI36
aI74
aI-42
aI-28
aI15
aI18
aI11
aI95
aI-37
aI93
aI-56
aI33
aI12
aI30
aI-95
aI-94
aI42
aI68
aI7
aI88
aI-10
aI-3
aI14
aI91
aI48
aI-64
aI-68
aI-63
aI-46
aI-71
aI-10
aI30
aI-4
aI-93
aI44
aI-46
aI4
aI13
aI10
aI-8
aI-31
aI-51
aI-66
aI27
aI19
aI37
aI13
aI-51
aI1
aI-52
aI77
aI-12
aI82
aI18
aI27
aI76
aI-86
aI-22
aI65
aI84
aI17
aI-57
aI34
aI-53
aI-60
aI46
aI59
aI62
aI-100
aI-93
aI3
aI28
aI28
aI-78
aI-92
aI87
aI67
aI-77
aI22
aI-72
aI43
aI76
aI-50
aI50
aI1
aI-52
aI-31
aI95
aI7
aI0
aI71
aI-90
aI-92
aI55
aI39
aI-78
aI0
aI-52
aI-32
aI-71
aI-86
aI72
aI61
aI98
aI-63
aI59
aI-26
aI-91
aI97
aI-90
aI64
aI65
aI8
aI-45
aI25
aI10
aI-56
aI95
aI49
aI77
aI-40
aI43
aI38
aI-52
aI15
aI-12
aI68
aI28
aI98
aI88
aI85
aI-97
aI-31
aI51
aI59
aI-27
aI28
aI27
aI11
aI-94
aI-40
aI-66
aI90
aI67
aI98
aI82
aI-50
aI-6
aI92
aI48
aI-28
aI-43
aI-27
aI6
aI12
aI-27
aI-59
aI-18
aI39
aI45
aI-64
aI-74
aI-48
aI-48
aI-21
aI-21
aI8
aI79
aI6
aI-22
aI23
aI-29
aI-62
aI69
aI83
aI-42
aI-2
aI-6
aI-12
aI-99
aI79
aI80
aI0
aI-6
aI-52
aI80
aI-91
aI-83
aI-71
aI-81
aI15
aI-73
aI95
aI-51
aI-49
aI3
aI26
aI-21
aI-77
aI-42
aI59
aI-89
aI-87
aI97
aI-97
aI58
aI41
aI76
aI-56
aI-25
aI98
aI-21
aI-15
aI92
aI78
aI51
aI-59
aI75
aI13
aI30
aI-78
aI73
aI-50
aI-21
aI18
aI98
aI-83
aI-3
aI65
aI-50
aI36
aI76
aI-18
aI13
aI32
aI-10
aI6
aI-27
aI4
aI-15
aI6
aI-90
aI7
aI78
aI-40
aI88
aI-34
aI-70
aI33
aI49
aI-64
aI-80
aI53
aI-60
aI39
aI61
aI-63
aI-46
aI-10
aI15
aI22
aI-35
aI60
aI-42
aI29
aI-100
aI-21
aI87
aI-96
aI-93
aI-77
aI80
aI32
aI79
aI90
aI-46
aI57
aI35
aI54
aI37
aI12
aI26
aI13
aI73
aI79
aI-73
aI-4
aI34
aI46
aI1
aI-45
aI-77
aI74
aI20
aI3
aI-3
aI-56
aI12
aI-5
aI31
aI-99
aI-61
aI-35
aI29
aI64
aI95
aI-51
aI-17
aI97
aI86
aI60
aI94
aI29
aI-53
aI-25
aI52
aI26
aI89
aI21
aI-16
aI19
aI59
aI-18
aI-33
aI-11
aI28
aI2
aI-100
aI-67
aI29
aI65
aI95
aI50
aI-74
aI65
aI-42
aI68
aI55
aI88
aI-70
aI-4
aI-73
aI50
aI-10
aI54
aI-81
aI58
aI45
aI-76
aI-97
aI-87
aI-3
aI77
aI36
aI-50
aI84
aI-22
aI-76
aI-44
aI19
aI40
aI-79
aI20
aI-56
aI39
aI-33
aI78
aI-81
aI65
aI-66
aI-4
aI20
aI-50
aI-93
aI87
aI15
aI13
aI55
aI92
aI74
aI-77
aI46
aI-80
aI3
aI-52
aI-34
aI-77
aI4
aI-45
aI-49
aI8
aI64
aI36
aI-34
aI-61
aI59
aI86
aI-18
aI12
aI-59
aI73
aI74
aI-50
aI88
aI-80
aI91
aI96
aI-43
aI-33
aI-16
aI96
aI-52
aI19
aI-46
aI-25
aI-89
aI-4
aI25
aI56
aI56
aI44
aI-53
aI77
aI-77
aI28
aI-13
aI-70
aI23
aI81
aI-59
aI77
aI84
aI-72
aI-78
aI79
aI44
aI-28
aI57
aI-12
aI15
aI-57
aI67
aI19
aI-46
aI100
aI-48
aI67
aI-4
aI-95
aI-36
aI-30
aI38
aI22
aI-87
aI0
aI-51
aI59
aI62
aI83
aI83
aI73
aI0
aI0
aI-55
aI-97
aI-52
aI19
aI-24
aI-74
aI-98
aI-78
aI-49
aI-95
aI65
aI-63
aI82
aI-11
aI61
aI-76
aI5
aI-70
aI-17
aI-15
aI-60
aI70
aI-15
aI-38
aI-21
aI-18
aI-48
aI-78
aI37
aI-59
aI-71
aI-50
aI98
aI-5
aI93
aI-39
aI-4
aI-37
aI98
aI-29
aI-7
aI16
aI94
aI-52
aI-98
aI-24
aI-11
aI92
aI42
aI3
aI-97
aI-39
aI-51
aI0
aI40
aI55
aI97
aI90
aI20
aI76
aI-50
aI32
aI60
aI-66
aI-33
aI-18
aI55
aI-60
aI12
aI-31
aI-100
aI21
aI-76
aI-87
aI66
aI98
aI4
aI69
aI30
aI-50
aI39
aI12
aI-58
aI73
aI23
aI74
aI51
aI97
aI12
aI64
aI-39
aI96
aI-31
aI82
aI-21
aI24
aI99
aI29
a.