(lp0
I-1
aI46
aI31
aI-57
aI-88
aI-59
aI-8
aI-66
aI2
aI96
aI73
aI-3
aI-26
aI-38
aI12
aI-16
aI-23
aI30
aI-62
aI-72
aI39
aI96
aI65
aI-42
aI86
aI-58
aI39
aI35
aI97
aI-30
aI-2
aI40
aI-84
aI-64
aI4
aI-41
aI6
aI-65
aI7
aI81
aI7
aI-2
aI90
aI-28
aI28
aI98
aI83
aI-95
aI-24
aI3
aI92
aI46
aI-50
aI-51
aI-80
aI-54
aI-61
aI-100
aI77
aI7
aI36
aI-17
aI-51
aI85
aI-23
aI-34
aI80
aI-77
aI-3
aI-38
aI3
aI70
aI23
aI-40
aI7
aI39
aI95
aI28
aI70
aI-71
aI83
aI54
aI5
aI9
aI75
aI-97
aI28
aI-46
aI89
aI-98
aI37
aI66
aI54
aI42
aI75
aI-25
aI16
aI-22
aI32
aI-38
aI-25
aI-87
aI-72
aI42
aI-57
aI-33
aI85
aI-37
aI-60
aI63
aI-90
aI48
aI-77
aI-35
aI-84
aI11
aI-1
aI37
aI-58
aI-90
aI-66
aI91
aI-4
aI-10
aI-4
aI62
aI97
aI-13
aI11
aI59
aI19
aI10
aI41
aI44
aI-94
aI-13
aI30
aI-15
aI-51
aI-69
aI17
aI90
aI81
aI34
aI-95
aI-54
aI-85
aI82
aI-89
aI-81
aI59
aI-15
aI37
aI62
aI-2
aI33
aI19
aI71
aI26
aI-97
aI-19
aI90
aI-43
aI92
aI34
aI5
aI34
aI-42
aI-21
aI20
aI9
aI-74
aI-78
aI-22
aI-65
aI89
aI-63
aI-1
aI-99
aI-46
aI29
aI-77
aI-23
aI-31
aI35
aI-59
aI-32
aI-75
aI17
aI-65
aI42
aI-76
aI-41
aI-91
aI-81
aI-32
aI28
aI47
aI-3
aI16
aI54
aI-89
aI-70
aI44
aI63
aI55
aI-76
aI-32
aI-42
aI71
aI-55
aI-53
aI-13
aI37
aI-37
aI-43
aI25
aI-10
aI91
aI58
aI56
aI-54
aI-18
aI26
aI6
aI99
aI-50
aI16
aI-98
aI98
aI-29
aI-26
aI-33
aI39
aI-95
aI28
aI88
aI55
aI18
aI-26
aI-13
aI-21
aI-22
aI23
aI50
aI25
aI-7
aI-68
aI26
aI76
aI65
aI29
aI36
aI15
aI99
aI80
aI-5
aI-40
aI-55
aI56
aI-68
aI-79
aI-37
aI-9
aI22
aI9
aI4
aI-28
aI-61
aI-80
aI-97
aI1
aI-60
aI-46
aI-42
aI53
aI21
aI63
aI82
aI-89
aI-72
aI-1
aI-44
aI-55
aI27
aI90
aI-84
aI28
aI40
aI91
aI25
aI-74
aI36
aI0
aI-97
aI93
aI-27
aI91
aI9
aI-77
aI7
aI-74
aI9
aI-7
aI57
aI61
aI-83
aI52
aI-80
aI-30
aI-32
aI-97
aI22
aI-77
aI90
aI-69
aI54
aI88
aI26
aI-11
aI-4
aI-70
aI-95
aI-82
aI84
aI-84
aI70
aI61
aI-94
aI-20
aI9
aI-89
aI-83
aI-55
aI-49
aI-82
aI31
aI21
aI-17
aI-21
aI-71
aI-90
aI-54
aI-28
aI-43
aI-5
aI12
aI-25
aI-10
aI-82
aI89
aI-31
aI-85
aI-1
aI38
aI81
aI1
aI3
aI4
aI-24
aI71
aI81
aI-74
aI-58
aI53
aI-60
aI22
aI-97
aI-35
aI-71
aI-9
aI-81
aI-85
aI-100
aI-60
aI-48
aI49
aI-95
aI17
aI3
aI-91
aI74
aI23
aI12
aI-24
aI82
aI47
aI71
aI88
aI49
aI-72
aI66
aI-22
aI-97
aI-87
aI55
aI-74
aI91
aI-20
aI75
aI92
aI93
aI28
aI-58
aI57
aI98
aI-90
aI-33
aI46
aI86
aI90
aI-62
aI21
aI-49
aI-66
aI79
aI-87
aI-51
aI-36
aI-17
aI71
aI-62
aI5
aI-74
aI64
aI-78
aI49
aI10
aI9
aI39
aI-11
aI-14
aI-70
aI-97
aI62
aI95
aI46
aI24
aI-68
aI98
aI-23
aI-85
aI-75
aI49
aI36
aI17
aI83
aI48
aI73
aI-69
aI-54
aI36
aI-32
aI-34
aI-44
aI55
aI7
aI-18
aI-40
aI-82
aI60
aI6
aI55
aI-34
aI-79
aI-12
aI-16
aI-34
aI-39
aI-19
aI98
aI-8
aI55
aI28
aI11
aI-76
aI63
aI-81
aI10
aI-44
aI-100
aI-93
aI34
aI-53
aI-56
aI-81
aI27
aI-81
aI28
aI-60
aI-70
aI-85
aI-46
aI17
aI-62
aI-15
aI-72
aI85
aI-80
aI-21
aI21
aI54
aI-65
aI-56
aI-75
aI-92
aI-77
aI-77
aI-10
aI97
aI-51
aI-99
aI27
aI-24
aI54
aI7
aI100
aI-54
aI-64
aI-71
aI89
aI89
aI15
aI100
aI46
aI75
aI-7
aI18
aI75
aI79
aI-83
aI43
aI65
aI57
aI-98
aI-65
aI27
aI-14
aI-81
aI-14
aI-7
aI-12
aI-94
aI73
aI61
aI-87
aI-66
aI94
aI96
aI78
aI-66
aI-13
aI2
aI61
aI-90
aI50
aI-60
aI-14
aI-18
aI58
aI-22
aI3
aI-72
aI93
aI-63
aI-92
aI-62
aI25
aI-69
aI4
aI0
aI-98
aI-82
aI-11
aI-78
aI71
aI-32
aI10
aI96
aI45
aI-22
aI-20
aI96
aI58
aI-86
aI14
aI95
aI29
aI-96
aI56
aI0
aI-66
aI-50
aI8
aI70
aI8
aI-91
aI79
aI-27
aI-90
aI-84
aI65
aI55
aI67
aI41
aI99
aI12
aI-23
aI-17
aI-48
aI22
aI-14
aI-56
aI44
aI71
aI10
aI48
aI-50
aI27
aI-89
aI-17
aI-67
aI2
aI18
aI32
aI-94
aI42
aI28
aI-36
aI92
aI-64
aI-7
aI70
aI-42
aI-42
aI-6
aI-17
aI-96
aI54
aI-52
aI-38
aI83
aI-50
aI3
aI83
aI94
aI76
aI79
aI-13
aI-26
aI-11
aI-85
aI-92
aI93
aI7
aI-11
aI-39
aI16
aI-61
aI34
aI-4
aI9
aI-52
aI72
aI31
aI-65
aI-45
aI-20
aI71
aI-18
aI-70
aI70
aI-75
aI74
aI71
aI70
aI22
aI28
aI29
aI100
aI12
aI88
aI-34
aI-89
aI-40
aI-82
aI87
aI16
aI22
aI91
aI-77
aI-47
aI-8
aI66
aI-1
aI89
aI73
aI75
aI49
aI-100
aI33
aI64
aI86
aI-63
aI-4
aI9
aI-83
aI33
aI-91
aI-96
aI-62
aI-93
aI0
aI4
aI0
aI26
aI71
aI1
aI65
aI84
aI-75
aI43
aI76
aI30
aI-58
aI48
aI-26
aI3
aI66
aI-92
aI-10
aI-72
aI-100
aI-37
aI-37
aI90
aI-39
aI75
aI-95
aI43
aI-80
aI34
aI-74
aI-10
aI-3
aI91
aI84
aI-56
aI30
aI-71
aI32
aI-46
aI-35
aI-33
aI-73
aI-46
aI42
aI-97
aI-100
aI77
aI-23
aI73
aI47
aI-51
aI38
aI90
aI-44
aI32
aI80
aI-84
aI-36
aI-98
aI98
aI50
aI9
aI3
aI94
aI-81
aI42
aI-94
aI74
aI94
aI71
aI48
aI49
aI0
aI-90
aI-24
aI39
aI-23
aI60
aI7
aI8
aI37
aI55
aI24
aI77
aI15
aI-28
aI7
aI-3
aI81
aI79
aI36
aI-70
aI-1
aI-59
aI60
aI-42
aI96
aI46
aI-9
aI49
aI92
aI56
aI-55
aI39
aI-26
aI-48
aI16
aI-4
aI-95
aI-87
aI53
aI80
aI31
aI-8
aI-24
aI60
aI-45
aI-24
aI10
aI71
aI44
aI-60
aI75
aI-9
aI-81
aI46
aI91
aI-35
aI-69
aI81
aI0
aI52
aI22
aI89
aI52
aI-97
aI22
aI-24
aI54
aI-71
aI-9
aI62
aI-59
aI35
aI0
aI-27
aI-62
aI28
aI-86
aI35
aI55
aI-63
aI-36
aI-7
aI-14
aI65
aI-13
aI-60
aI-1
aI-59
aI-25
aI41
aI-36
aI-92
aI78
aI-65
aI18
aI96
aI57
aI0
aI21
aI98
aI69
aI0
aI-32
aI62
aI-38
aI-37
aI-78
aI59
aI-25
aI-98
aI-2
aI-91
aI25
aI-48
aI20
aI-73
aI38
aI-33
aI64
aI43
aI30
aI4
aI-100
aI-31
aI12
aI-50
aI-53
aI-96
aI-44
aI-86
aI3
aI93
aI10
aI12
aI-60
aI26
aI-52
aI3
aI65
aI-81
aI-70
aI98
aI41
aI88
aI75
aI-19
aI20
aI-24
aI-83
aI85
aI63
aI-79
aI-79
aI14
aI41
aI-95
aI-61
aI-60
aI-35
aI11
aI74
aI-38
aI-25
aI-45
aI54
aI15
aI-39
aI-3
aI47
aI-18
aI-84
aI8
aI47
aI35
aI76
aI-10
aI-62
aI-41
aI80
aI34
aI-59
aI6
aI27
aI-72
aI94
aI-87
aI15
aI1
aI2
aI4
aI-14
aI97
aI-64
aI17
aI88
aI-79
aI-50
aI77
aI-37
aI-51
aI-37
aI72
aI-62
aI30
aI-93
aI-84
aI-38
aI-64
aI44
aI39
aI-67
aI-11
aI-60
aI-31
aI71
aI44
aI-94
aI54
aI49
aI32
aI-96
aI-67
aI69
aI49
aI-99
aI-37
aI59
aI92
aI100
aI-5
aI-89
aI-59
aI-22
aI37
aI-7
aI51
aI100
aI3
aI-11
aI36
aI-20
aI-20
aI72
aI-52
aI-76
aI-35
aI22
aI92
aI-80
aI76
aI-20
aI52
aI58
aI-11
aI22
aI53
aI65
aI-99
aI42
aI-25
aI-78
aI9
aI-83
aI-9
aI-5
aI1
aI-96
aI-97
aI65
aI45
aI-17
aI-74
aI-13
aI68
aI8
aI-15
aI57
aI-25
aI12
aI-70
aI17
aI99
aI1
aI-35
aI26
aI-10
aI-91
aI-50
aI28
aI47
aI52
aI38
aI-55
aI-72
aI-36
aI-9
aI9
aI78
aI-13
aI43
aI-14
aI0
aI40
aI82
aI71
aI70
aI43
aI88
aI9
aI-29
aI-99
aI40
aI-57
aI36
aI12
aI21
aI-69
aI30
aI11
aI-34
aI-17
aI77
aI41
aI24
aI56
aI4
aI63
aI61
aI-1
aI21
aI-96
aI80
aI67
aI-24
aI-68
aI-93
aI71
aI41
aI78
aI92
aI50
aI-13
aI10
aI-75
aI-65
aI2
aI-68
aI25
aI51
aI-57
aI-1
aI-63
aI-78
aI-35
aI22
aI-89
aI-63
aI-15
aI-25
aI38
aI-100
aI-64
aI-25
aI52
aI-97
aI59
aI42
aI47
aI-29
aI19
aI39
aI-32
aI74
aI-87
aI1
aI94
aI-94
aI86
aI-37
aI-45
aI-58
aI-63
aI76
aI14
aI-75
aI24
aI41
aI74
aI96
aI-81
aI42
aI13
aI14
aI50
aI33
aI30
aI-88
aI-60
aI-83
aI70
aI-93
aI-66
aI78
aI-94
aI79
aI-4
aI-27
aI18
aI38
aI17
aI31
aI24
aI-57
aI83
aI16
aI9
aI-75
aI-11
aI82
aI50
aI-66
aI-70
aI83
aI41
aI8
aI92
aI-6
aI-69
aI81
aI31
aI-37
aI83
aI-9
aI-67
aI-93
aI-45
aI-10
aI86
aI95
aI78
aI72
aI45
aI10
aI-25
aI71
aI47
aI-58
aI-29
aI-71
aI4
aI23
aI-74
aI31
aI-9
aI50
aI-24
aI-37
aI-12
aI26
aI11
aI79
aI15
aI-26
aI-96
aI48
aI25
aI-33
aI-40
aI-20
aI-76
aI1
aI-99
aI-52
aI22
aI71
aI-94
aI-9
aI-23
aI-30
aI69
aI-8
aI76
aI33
aI-87
aI100
aI11
aI-52
aI-57
aI-88
aI-52
aI-100
aI-95
aI-56
aI-76
aI64
aI5
aI1
aI-68
aI-15
aI-47
aI-67
aI78
aI40
aI35
aI-41
aI-52
aI82
aI14
aI-10
aI-44
aI40
aI25
aI72
aI-28
aI65
aI-52
aI-4
aI-80
aI99
aI23
aI-97
aI10
aI-88
aI71
aI13
aI-15
aI-33
aI9
aI11
aI-27
aI64
aI75
aI-96
aI54
aI-29
aI-80
aI19
aI29
aI82
aI6
aI29
aI41
aI-80
aI-79
aI1
aI-10
aI4
aI-41
aI24
aI-85
aI-84
aI6
aI83
aI-24
aI-68
aI94
aI-8
aI-61
aI35
aI-69
aI65
aI38
aI83
aI-86
aI-50
aI-89
aI19
aI-17
aI-31
aI-93
aI76
aI57
aI-3
aI15
aI-47
aI-98
aI29
aI77
aI77
aI-82
aI49
aI90
aI57
aI-62
aI-26
aI53
aI-30
aI-75
aI44
aI17
aI2
aI93
aI-46
aI52
aI-37
aI-89
aI34
aI25
aI-93
aI-72
aI-81
aI-59
aI-34
aI-92
aI49
aI-28
aI-61
aI-55
aI39
aI-81
aI10
aI50
aI61
aI-9
aI-67
aI12
aI-66
aI95
aI-23
aI-78
aI13
aI93
aI37
aI62
aI15
aI76
aI-41
aI86
aI94
aI92
aI54
aI19
aI24
aI-46
aI-88
aI70
aI-27
aI93
aI-29
aI-10
aI62
aI-65
aI69
aI-15
aI56
aI57
aI57
aI-28
aI-73
aI67
aI42
aI31
aI85
aI47
aI-79
aI-89
aI95
aI-38
aI38
aI-20
aI64
aI-40
aI35
aI-48
aI94
aI74
aI27
aI31
aI72
aI6
aI29
aI48
aI-24
aI-99
aI76
aI17
aI97
aI-9
aI92
aI14
aI-69
aI11
aI20
aI-35
aI-10
aI-82
aI-42
aI20
aI98
aI-10
aI-60
aI-25
aI53
aI-90
aI-76
aI26
aI-63
aI-26
aI-64
aI53
aI-21
aI-67
aI-19
aI-32
aI65
aI79
aI-77
aI-51
aI87
aI39
aI29
aI34
aI-100
aI-14
aI-53
aI19
aI54
aI-81
aI86
aI-67
aI45
aI-28
aI11
aI-13
aI40
aI55
aI-9
aI18
aI63
aI91
aI-100
aI-36
aI75
aI-97
aI15
aI31
aI-39
aI-52
aI-27
aI-42
aI99
aI22
aI-57
aI71
aI-63
aI-99
aI-84
aI91
aI1
aI58
aI-42
aI-74
aI-17
aI53
aI79
aI7
aI-51
aI68
aI-47
aI77
aI-18
aI-41
aI-28
aI-16
aI-56
aI42
aI28
aI98
aI-16
aI38
aI46
aI1
aI72
aI99
aI2
aI41
aI52
aI2
aI54
aI-48
aI-73
aI-87
aI-75
aI0
aI-52
aI35
aI78
aI5
aI-69
aI9
aI-28
aI9
aI41
aI-44
aI62
aI35
aI39
aI-67
aI-80
aI-81
aI42
aI84
aI28
aI-17
aI80
aI73
aI15
aI-44
aI-33
aI64
aI55
aI94
aI-97
aI-61
aI-72
aI-81
aI44
aI57
aI81
aI-42
aI6
aI47
aI39
aI-41
aI-72
aI15
aI99
aI30
aI78
aI70
aI36
aI88
aI-72
aI12
aI-41
aI-12
aI69
aI-24
aI31
aI4
aI60
aI20
aI91
aI-99
aI52
aI7
aI45
aI-92
aI-40
aI63
aI-91
aI78
aI60
aI29
aI64
aI44
aI-16
aI-32
aI80
aI49
aI20
aI72
aI0
aI72
aI-30
aI-35
aI-70
aI-26
aI-2
aI-84
aI52
aI56
aI32
aI-10
aI70
aI85
aI14
aI-69
aI-89
aI21
aI-48
aI-19
aI30
aI8
aI32
aI93
aI89
aI-64
aI-37
aI-31
aI-65
aI-22
aI37
aI-7
aI23
aI95
aI77
aI-27
aI-30
aI56
aI-58
aI24
aI-38
aI57
aI100
aI93
aI-89
aI83
aI61
aI-5
aI56
aI-95
aI-14
aI49
aI29
aI-52
aI-99
aI-37
aI34
aI-51
aI40
aI-72
aI-27
aI18
aI-9
aI6
aI45
aI-24
aI-24
aI55
aI-28
aI29
aI84
aI59
aI-63
aI6
aI99
aI-90
aI-49
aI-59
aI-1
aI-44
aI-59
aI-24
aI-68
aI57
aI32
aI-88
aI59
aI70
aI48
aI56
aI17
aI-67
aI-91
aI-90
aI-20
aI-77
aI-78
aI-50
aI44
aI-13
aI9
aI81
aI-44
aI38
aI50
aI-60
aI6
aI45
aI-19
aI-39
aI18
aI-13
aI15
aI1
aI-61
aI68
aI-49
aI62
aI79
aI34
aI41
aI-75
aI-57
aI-61
aI-54
aI-31
aI-48
aI-1
aI53
aI34
aI-43
aI27
aI-95
aI84
aI-90
aI62
aI18
aI14
aI-11
aI47
aI-92
aI-98
aI39
aI37
aI-82
aI44
aI-29
aI64
aI-93
aI-66
aI56
aI42
aI33
aI21
aI-54
aI-99
aI-31
aI-35
aI-57
aI-41
aI-43
aI97
aI-60
aI99
aI-87
aI95
aI-17
aI-25
aI-65
aI-21
aI28
aI-62
aI-89
aI-2
aI-48
aI-5
aI-12
aI76
aI67
aI-27
aI40
aI-23
aI0
aI75
aI-40
aI-63
aI44
aI-99
aI-27
aI-74
aI93
aI-7
aI48
aI-94
aI-5
aI-56
aI-46
aI6
aI-84
aI-18
aI-94
aI-22
aI23
aI17
aI24
aI-50
aI84
aI29
aI-79
aI17
aI-75
aI32
aI-6
aI86
aI44
aI88
aI-63
aI-63
aI-10
aI-46
aI-25
aI-89
aI55
aI58
aI55
aI-64
aI-28
aI7
aI43
aI-2
aI75
aI37
aI40
aI69
aI28
aI-77
aI100
aI62
aI6
aI6
aI-3
aI58
aI26
aI-32
aI-28
aI-26
aI-10
aI64
aI-19
aI-46
aI95
aI88
aI-66
aI-70
aI-79
aI-66
aI-53
aI-18
aI-48
aI19
aI-14
aI11
aI87
aI100
aI-52
aI-5
aI-85
aI9
aI-27
aI-48
aI19
aI-97
aI-52
aI-79
aI-89
aI6
aI19
aI46
aI50
aI99
aI-15
aI67
aI3
aI55
aI67
aI7
aI35
aI-21
aI23
aI-67
aI-68
aI20
aI95
aI85
aI58
aI25
aI37
aI-4
aI-26
aI85
aI84
aI-94
aI62
aI-95
aI54
aI-41
aI9
aI17
aI-4
aI73
aI31
aI-100
aI99
aI2
aI-10
aI16
aI-65
aI93
aI85
aI-78
aI-4
aI-88
aI76
aI-68
aI67
aI-82
aI-91
aI-34
aI100
aI82
aI-11
aI-54
aI-86
aI-9
aI-94
aI58
aI8
aI-31
aI84
aI23
aI7
aI23
aI83
aI42
aI-63
aI-2
aI-73
aI23
aI97
aI89
aI73
aI-38
aI28
aI70
aI21
aI-98
aI4
aI-2
aI76
aI83
aI51
aI12
aI84
aI-1
aI24
aI88
aI15
aI6
aI19
aI-15
aI64
aI68
aI93
aI5
aI-50
aI-56
aI51
aI21
aI-44
aI91
aI32
aI-58
aI24
aI-89
aI6
aI92
aI-44
aI-50
aI-29
aI79
aI20
aI86
aI-49
aI-38
aI97
aI-66
aI27
aI-74
aI38
aI51
aI-5
aI83
aI-12
aI-88
aI-40
aI-19
aI-4
aI71
aI-60
aI-2
aI58
aI-22
aI-19
aI-45
aI95
aI-99
aI-27
aI-99
aI56
aI52
aI-27
aI-82
aI27
aI28
aI-72
aI-93
aI94
aI-35
aI-39
aI-39
aI31
aI3
aI-10
aI93
aI-55
aI-87
aI65
aI4
aI-55
aI-39
aI18
aI-84
aI13
aI54
aI91
aI96
aI3
aI83
aI-54
aI-60
aI31
aI85
aI-44
aI1
aI-5
aI45
aI58
aI30
aI83
aI-51
aI-61
aI26
aI82
aI17
aI-80
aI-9
aI-15
aI14
aI-69
aI47
aI-92
aI-80
aI33
aI-89
aI9
aI-97
aI-79
aI-56
aI54
aI-54
aI74
aI67
aI-90
aI-83
aI31
aI55
aI0
aI8
aI-83
aI-92
aI-87
aI36
aI-22
aI60
aI-31
aI-14
aI54
aI-78
aI-5
aI-93
aI-31
aI29
aI-43
aI24
aI33
aI-3
aI-74
aI51
aI-61
aI-50
aI46
aI49
aI38
aI-28
aI-43
aI33
aI-60
aI16
aI-65
aI-65
aI-8
aI-56
aI70
aI-79
aI-32
aI72
aI63
aI-3
aI-83
aI14
aI57
aI93
aI99
aI99
aI-12
aI71
aI26
aI61
aI-5
aI-99
aI-59
aI-18
aI-93
aI-38
aI73
aI-45
aI11
aI-97
aI23
aI-76
aI31
aI3
aI32
aI-59
aI45
aI-64
aI31
aI27
aI-76
aI-34
aI5
aI-99
aI-84
aI-2
aI-93
aI-74
aI-48
aI-89
aI6
aI-73
aI-74
aI93
aI-95
aI87
aI35
aI100
aI60
aI75
aI86
aI30
aI70
aI-7
aI-19
aI78
aI-37
aI63
aI96
aI20
aI46
aI5
aI-100
aI34
aI58
aI-28
aI-3
aI33
aI1
aI-35
aI100
aI-36
aI48
aI-60
aI-73
aI48
aI-20
aI54
aI-84
aI100
aI-78
aI46
aI38
aI-17
aI-13
aI71
aI15
aI-92
aI-25
aI10
aI79
aI-67
aI-68
aI-17
aI-32
aI2
aI26
aI87
aI29
aI-87
aI98
aI-46
aI-95
aI-75
aI72
aI55
aI19
aI-1
aI89
aI24
aI59
aI5
aI1
aI-53
aI-35
aI-76
aI-4
aI1
aI24
aI29
aI-25
aI-48
aI81
aI-32
aI97
aI39
aI61
aI-20
aI41
aI17
aI94
aI96
aI-40
aI34
aI58
aI1
aI-77
aI22
aI96
aI18
aI15
aI8
aI74
aI-63
aI-81
aI-99
aI85
aI6
aI39
aI63
aI-100
aI95
aI-28
aI-21
aI99
aI-1
aI-17
aI-55
aI14
aI31
aI16
aI56
aI-36
aI-65
aI-30
aI-19
aI-57
aI-54
aI-42
aI-33
aI57
aI-12
aI-97
aI-4
aI2
aI94
aI89
aI-91
aI-78
aI-77
aI-24
aI-67
aI90
aI-95
aI-40
aI-48
aI-13
aI-69
aI-64
aI-90
aI52
aI-95
aI-98
aI7
aI-51
aI-98
aI-61
aI-26
aI-2
aI-29
aI15
aI47
aI58
aI-6
aI94
aI1
aI5
aI60
aI-81
aI14
aI-68
aI95
aI47
aI-24
aI74
aI-93
aI-34
aI-38
aI-96
aI14
aI-61
aI24
aI-92
aI-63
aI-46
aI-47
aI-73
aI-74
aI58
aI-79
aI-45
aI38
aI-57
aI36
aI-18
aI-46
aI-100
aI-10
aI-86
aI-22
aI85
aI-3
aI-77
aI43
aI-47
aI22
aI-54
aI4
aI-60
aI-60
aI-78
aI-31
aI29
aI-83
aI37
aI-48
aI-2
aI0
aI63
aI80
aI-95
aI-85
aI-2
aI51
aI79
aI81
aI-7
aI87
aI-75
aI-78
aI-21
aI-53
aI-7
aI-11
aI-80
aI39
aI29
aI-99
aI-38
aI85
aI-97
aI-84
aI97
aI17
aI-76
aI31
aI-82
aI-39
aI70
aI35
aI-62
aI10
aI-59
aI49
aI-100
aI21
aI-57
aI-7
aI-80
aI5
aI89
aI27
aI-96
aI-92
aI14
aI-65
aI-65
aI-46
aI-41
aI48
aI-17
aI-99
aI-45
aI4
aI-99
aI-96
aI69
aI98
aI-69
aI53
aI99
aI29
aI-49
aI-34
aI41
aI-71
aI33
aI-28
aI-43
aI-60
aI-56
aI54
aI-31
aI22
aI-2
aI91
aI81
aI-28
aI-66
aI27
aI47
aI-31
aI-96
aI-98
aI87
aI-4
aI-1
aI-17
aI96
aI21
aI-100
aI-11
aI-71
aI-46
aI45
aI-99
aI77
aI42
aI35
aI56
aI-37
aI13
aI18
aI81
aI-72
aI-60
aI-65
aI54
aI57
aI53
aI-78
aI96
aI86
aI-4
aI25
aI41
aI-96
aI-71
aI-52
aI-55
aI47
aI46
aI-63
aI-61
aI-9
aI81
aI-64
aI5
aI-47
aI77
aI21
aI-64
aI46
aI48
aI-45
aI77
aI-67
aI-79
aI19
aI3
aI12
aI-36
aI-48
aI7
aI-42
aI6
aI-3
aI-42
aI59
aI35
aI-74
aI-78
aI9
aI59
aI15
aI-32
aI-100
aI5
aI-5
aI-32
aI-33
aI-85
aI75
aI-22
aI-95
aI-32
aI96
aI9
aI50
aI95
aI-55
aI-10
aI-26
aI8
aI-96
aI-38
aI12
aI-45
aI-40
aI-29
aI18
aI71
aI-67
aI-79
aI-10
aI63
aI-32
aI89
aI39
aI60
aI44
aI-81
aI-51
aI88
aI-78
aI28
aI-10
aI85
aI97
aI-51
aI-70
aI22
aI-26
aI-20
aI-99
aI3
aI88
aI66
aI89
aI37
aI-42
aI48
aI92
aI1
aI-33
aI12
aI-17
aI-40
aI-80
aI19
aI82
aI-28
aI44
aI2
aI-29
aI-85
aI-57
aI-28
aI41
aI-59
aI-41
aI35
aI92
aI40
aI-35
aI66
aI-81
aI-25
aI62
aI17
aI0
aI12
aI93
aI25
aI-64
aI83
aI-96
aI-50
aI-68
aI30
aI-49
aI-30
aI16
aI-91
aI-58
aI-26
aI-32
aI-48
aI98
aI73
aI12
aI-78
aI-16
aI98
aI15
aI-42
aI-80
aI-38
aI-54
aI-56
aI-51
aI-17
aI50
aI-28
aI-42
aI54
aI-28
aI57
aI97
aI-23
aI-63
aI27
aI-82
aI-59
aI41
aI-4
aI71
aI91
aI-86
aI74
aI-48
aI-94
aI68
aI-29
aI28
aI-65
aI-82
aI-45
aI86
aI62
aI14
aI-75
aI14
aI1
aI64
aI-61
aI43
aI-62
aI-90
aI-1
aI-42
aI68
aI52
aI37
aI-59
aI-84
aI-67
aI-31
aI50
aI95
aI-93
aI-26
aI-11
aI7
aI-37
aI-31
aI-72
aI65
aI17
aI40
aI60
aI7
aI38
aI31
aI-53
aI16
aI66
aI24
aI37
aI43
aI-18
aI-90
aI65
aI-74
aI84
aI88
aI-43
aI-32
aI-85
aI80
aI3
aI0
aI-52
aI-75
aI-43
aI37
aI6
aI14
aI-45
aI69
aI-58
aI82
aI-45
aI-41
aI-6
aI-17
aI46
aI7
aI-60
aI33
aI-49
aI12
aI63
aI-44
aI16
aI7
aI5
aI-63
aI51
aI73
aI-59
aI-27
aI83
aI-85
aI51
aI-43
aI-68
aI-40
aI5
aI7
aI-38
aI-57
aI-63
aI9
aI-26
aI71
aI81
aI-1
aI51
aI-16
aI-66
aI40
aI-13
aI44
aI75
aI-48
aI-67
aI25
aI-61
aI-100
aI11
aI4
aI-96
aI99
aI-14
aI-85
aI28
aI63
aI20
aI-23
aI70
aI18
aI14
aI-49
aI-99
aI10
aI77
aI93
aI-22
aI67
aI-70
aI-72
aI92
aI-59
aI52
aI-65
aI32
aI6
aI22
aI63
aI-86
aI-32
aI-93
aI64
aI94
aI-74
aI-30
aI92
aI-17
aI68
aI19
aI-1
aI26
aI-89
aI44
aI30
aI49
aI94
aI-50
aI-53
aI-20
aI81
aI36
aI-57
aI-55
aI75
aI-31
aI5
aI100
aI11
aI55
aI-94
aI55
aI43
aI-47
aI44
aI-13
aI76
aI-79
aI96
aI-52
aI43
aI24
aI-69
aI9
aI84
aI-71
aI-79
aI-3
aI-88
aI-10
aI41
aI-36
aI0
aI-61
aI-71
aI-43
aI75
aI78
aI-60
aI96
aI-83
aI-40
aI-27
aI-96
aI89
aI-20
aI-44
aI-88
aI-9
aI-40
aI17
aI-54
aI-3
aI92
aI55
aI98
aI14
aI-24
aI-49
aI100
aI-96
aI-27
aI34
aI66
aI-94
aI-70
aI91
aI-20
aI70
aI-48
aI-70
aI65
aI-52
aI26
aI-59
aI95
aI98
aI88
aI-63
aI90
aI10
aI-84
aI-27
aI93
aI-38
aI87
aI-98
aI23
aI55
aI51
aI42
aI-19
aI79
aI-33
aI-33
aI-21
aI-99
aI74
aI-21
aI22
aI40
aI-58
aI17
aI88
a.