(lp0
I11
aI65
aI55
aI97
aI71
aI35
aI41
aI2
aI87
aI96
aI56
aI19
aI74
aI6
aI67
aI63
aI97
aI82
aI37
aI88
aI70
aI81
aI78
aI74
aI20
aI37
aI95
aI38
aI40
aI65
aI75
aI96
aI26
aI77
aI67
aI75
aI38
aI18
aI42
aI1
a.