(lp0
I45
aI70
aI100
aI37
aI93
aI55
aI22
aI36
aI56
aI85
aI22
aI96
aI42
aI48
aI9
aI0
aI36
aI1
aI69
aI6
aI99
aI43
aI68
aI79
aI60
aI81
aI26
aI4
aI49
aI23
aI91
aI20
aI87
aI25
aI56
aI32
aI48
aI24
aI41
aI6
aI100
aI10
aI40
aI5
aI23
aI84
aI95
aI3
aI39
aI6
a.