(lp0
I83
aI16
aI51
aI96
aI84
aI74
aI8
aI65
aI83
aI71
aI41
aI4
aI22
aI9
aI25
aI81
aI77
aI92
aI29
aI51
aI28
aI7
aI24
aI83
aI98
aI88
aI32
aI27
aI23
aI98
aI22
aI58
aI88
aI47
aI44
aI98
aI4
aI13
aI56
aI89
aI42
aI30
aI92
aI3
aI16
aI90
aI53
aI24
aI73
aI9
aI91
aI26
aI12
aI1
aI47
aI43
aI12
aI68
aI34
aI74
aI63
aI10
aI79
aI86
aI37
aI86
aI10
aI79
aI14
aI98
aI88
aI92
aI13
aI67
aI16
aI69
aI21
aI33
aI33
aI65
aI2
aI31
aI62
aI20
aI35
aI91
aI19
aI72
aI17
aI12
aI52
aI66
aI96
aI41
aI5
aI40
aI23
aI70
aI89
aI57
aI66
aI50
aI44
aI89
aI49
aI26
aI12
aI88
aI69
aI93
aI8
aI28
aI73
aI71
aI3
aI87
aI68
aI49
aI42
aI19
aI36
aI44
aI14
aI41
aI80
aI34
aI28
aI51
aI45
aI75
aI58
aI18
aI71
aI70
aI90
aI36
aI58
aI94
aI14
aI4
aI97
aI5
aI27
aI87
aI60
aI50
aI5
aI39
aI84
aI95
aI43
aI54
aI22
aI87
aI40
aI1
aI97
aI5
aI10
aI23
aI27
aI97
aI98
aI42
aI31
aI8
aI46
aI50
aI66
aI19
aI76
aI45
aI31
aI87
aI84
aI39
aI99
aI8
aI46
aI59
aI99
aI96
aI39
aI10
aI16
aI22
aI80
aI83
aI15
aI74
aI97
aI0
aI84
aI93
aI86
aI2
aI67
aI58
aI63
aI80
aI87
aI79
aI27
aI83
aI61
aI34
aI81
aI29
aI42
aI5
aI93
aI52
aI52
aI42
aI22
aI91
aI58
aI7
aI15
aI98
aI48
aI22
aI15
aI25
aI49
aI29
aI0
aI57
aI23
aI48
aI78
aI85
aI96
aI29
aI78
aI29
aI13
aI60
aI15
aI68
aI76
aI21
aI63
aI30
aI60
aI66
aI65
aI76
aI26
aI62
aI55
aI12
aI51
aI22
aI90
aI3
aI39
aI40
aI41
aI47
aI7
aI28
aI17
aI42
aI50
aI78
aI58
aI37
aI8
aI17
aI10
aI99
aI66
aI63
aI77
aI57
aI5
aI84
aI68
aI44
aI9
aI89
aI79
aI13
aI88
aI79
aI83
aI23
aI80
aI10
aI21
aI48
aI91
aI6
aI14
aI4
aI38
aI45
aI11
aI65
a.