(lp0
I78
aI22
aI96
aI46
aI8
aI69
aI81
aI63
aI43
aI63
aI79
aI86
aI19
aI76
aI71
aI94
aI33
aI25
aI14
aI21
aI46
aI35
aI88
aI38
aI71
aI94
aI78
aI49
aI62
aI83
aI45
aI56
aI15
aI14
aI7
aI87
aI80
aI86
aI62
aI66
aI37
aI3
aI100
aI20
aI26
aI45
aI6
aI39
aI72
aI97
aI17
aI4
aI79
aI18
aI18
aI17
aI90
aI27
aI84
aI99
aI56
aI41
aI0
aI64
aI88
aI52
aI58
aI67
aI51
aI16
aI8
aI19
aI87
aI31
aI48
aI16
aI84
aI43
aI61
aI47
aI27
aI61
aI39
aI59
aI25
aI71
aI53
aI17
aI51
aI20
aI22
aI4
aI20
aI82
aI82
aI4
aI1
aI34
aI28
aI5
aI64
aI88
aI14
aI68
aI72
aI18
aI45
aI46
aI84
aI5
aI3
aI88
aI39
aI80
aI83
aI4
aI33
aI99
aI16
aI14
aI100
aI84
aI86
aI37
aI13
aI51
aI5
aI63
aI27
aI54
aI81
aI39
aI12
aI48
aI55
aI76
aI91
aI93
aI45
aI24
aI98
aI83
aI76
aI0
aI22
aI66
aI41
aI24
aI18
aI71
aI13
aI79
aI71
aI4
aI33
aI71
aI18
aI74
aI45
aI78
aI69
aI88
aI11
aI12
aI40
aI38
aI25
aI72
aI74
aI96
aI48
aI51
aI75
aI52
aI31
aI32
aI52
aI43
aI43
aI4
aI46
aI98
aI2
aI4
aI61
aI70
aI4
aI90
aI52
aI97
aI93
aI22
aI79
aI14
aI62
aI34
aI27
aI58
aI19
aI32
aI3
aI90
aI47
aI54
aI43
aI12
aI28
aI81
aI84
aI77
aI98
aI43
aI19
aI73
aI62
aI73
aI36
aI81
aI46
aI32
aI56
aI100
aI27
aI45
aI94
aI65
aI5
aI73
aI75
aI75
aI76
aI13
aI89
aI1
aI63
aI31
aI70
aI60
aI100
aI27
aI94
aI70
aI68
aI41
aI44
aI43
aI29
aI73
aI83
aI32
aI81
aI13
aI81
aI51
aI39
aI6
aI82
aI43
aI92
aI59
aI61
aI75
aI17
aI3
aI87
aI38
aI0
aI49
aI2
aI49
aI41
aI14
aI87
aI38
aI61
aI64
aI93
aI49
aI56
aI74
aI8
aI31
aI41
aI84
aI97
aI88
aI72
aI47
aI33
aI26
aI51
aI87
aI24
aI94
aI7
aI64
aI6
aI71
aI80
aI27
aI64
aI83
aI5
aI88
aI65
aI51
aI3
aI85
aI9
aI42
aI76
aI32
aI33
aI78
aI51
aI10
aI30
aI13
aI2
aI77
aI83
aI22
aI18
aI36
aI99
aI1
aI62
aI41
aI78
aI1
aI22
aI21
aI50
aI62
aI45
aI50
aI19
aI57
aI29
aI88
aI86
aI22
aI71
aI56
aI43
aI74
aI88
aI70
aI59
aI84
aI95
aI51
aI34
aI40
aI25
aI60
aI88
aI90
aI27
aI6
aI48
aI10
aI94
aI84
aI96
aI41
aI69
aI35
aI62
aI37
aI77
aI1
aI87
aI92
aI18
aI16
aI24
aI23
aI29
aI38
aI36
aI76
aI33
aI20
aI33
aI10
aI22
aI42
aI32
aI61
aI52
aI62
aI11
aI37
aI72
aI83
aI85
aI43
aI13
aI55
aI45
aI6
aI53
aI73
aI98
aI47
aI65
aI78
aI0
aI90
aI89
aI53
aI95
aI86
aI62
aI60
aI92
aI81
aI0
aI63
aI92
aI26
aI75
aI72
aI38
aI97
aI14
aI93
aI53
aI11
aI22
aI25
aI72
aI26
aI89
aI82
aI57
aI52
aI99
aI42
aI46
aI66
aI9
aI49
aI17
aI94
aI42
aI26
aI79
aI77
aI28
aI56
aI85
aI14
aI53
aI0
aI100
aI53
aI22
aI32
aI2
aI44
aI36
aI94
aI23
aI68
aI11
aI69
aI87
aI87
aI10
aI27
aI0
aI82
aI67
aI92
aI40
aI10
aI36
aI48
aI73
aI30
aI19
aI78
aI68
aI46
aI52
aI4
aI35
aI32
aI56
aI12
aI83
aI10
aI72
aI90
aI77
aI46
aI57
aI54
aI90
aI49
aI68
aI53
aI85
aI64
aI52
aI71
aI78
aI90
aI100
aI3
aI81
aI51
aI49
aI59
aI80
aI3
aI24
aI38
aI83
aI52
aI49
aI88
aI91
aI88
aI13
aI51
aI45
aI88
aI22
aI8
aI100
aI39
aI52
aI0
aI5
aI8
aI77
aI75
aI27
aI63
aI0
aI30
aI80
aI84
aI0
aI29
aI60
aI69
aI8
aI88
aI30
aI48
aI81
aI72
aI74
aI30
aI44
aI45
aI92
aI17
aI17
aI100
aI24
aI87
aI64
aI97
aI53
aI83
aI11
aI86
aI57
aI88
aI35
aI73
aI1
aI17
aI54
aI55
aI53
aI58
aI31
aI52
aI100
aI93
aI42
aI61
aI4
aI81
aI7
aI94
aI50
aI0
aI97
aI100
aI68
aI85
aI78
aI15
aI94
aI79
aI87
aI48
aI87
aI17
aI18
aI22
aI70
aI28
aI81
aI92
aI30
aI90
aI9
aI27
aI80
aI57
aI22
aI35
aI29
aI62
aI72
aI58
aI20
aI19
aI78
aI14
aI8
aI62
aI79
aI41
aI82
aI86
aI48
aI11
aI20
aI53
aI45
aI99
aI9
aI38
aI43
aI39
aI49
aI40
aI87
aI31
aI4
aI47
aI84
aI6
aI28
aI89
aI82
aI4
aI89
aI7
aI67
aI90
aI7
aI42
aI78
aI94
aI18
aI33
aI10
aI76
aI67
aI32
aI90
aI60
aI45
aI84
aI74
aI81
aI48
aI3
aI78
aI92
aI61
aI24
aI20
aI40
aI99
aI73
aI19
aI16
aI2
aI53
aI50
aI66
aI100
aI57
aI11
aI5
aI7
aI44
aI89
aI98
aI0
aI70
aI81
aI40
aI94
aI31
aI16
aI33
aI54
aI58
aI15
aI30
aI31
aI50
aI15
aI24
aI20
aI1
aI86
aI14
aI81
aI69
aI88
aI24
aI64
aI100
aI23
aI45
aI66
aI55
aI15
aI82
aI5
aI68
aI28
aI62
aI93
aI19
aI90
aI80
aI89
aI33
aI84
aI24
aI34
aI24
aI35
aI73
aI56
aI1
aI22
aI35
aI89
aI31
aI58
aI12
aI57
aI19
aI51
aI27
aI7
aI75
aI48
aI10
aI78
aI3
aI68
aI37
aI30
aI43
aI0
aI57
aI17
aI10
aI19
aI25
aI88
aI54
aI13
aI15
aI23
aI53
aI84
aI69
aI82
aI6
aI78
aI69
aI7
aI56
aI27
aI99
aI8
aI70
aI34
aI6
aI38
aI28
aI64
aI68
aI6
aI51
aI51
aI63
aI93
aI99
aI100
aI75
aI49
aI30
aI58
aI99
aI80
aI57
aI8
aI34
aI35
aI15
aI82
aI25
aI28
aI18
aI85
aI64
aI24
aI99
aI56
aI10
aI80
aI84
aI33
aI38
aI47
aI83
aI35
aI68
aI58
aI21
aI53
aI80
aI41
aI99
aI44
aI74
aI69
aI24
aI3
aI34
aI73
aI68
aI23
aI55
aI60
aI11
aI24
aI88
aI93
aI61
aI49
aI40
aI48
aI83
aI19
aI37
aI99
aI22
aI24
aI20
aI22
aI16
aI63
aI87
aI96
aI44
aI50
aI29
aI100
aI45
aI11
aI49
aI0
aI6
aI78
aI5
aI31
aI12
aI85
aI38
aI13
aI60
aI28
aI73
aI24
aI29
aI11
aI53
aI67
aI5
aI85
aI53
aI75
aI92
aI100
aI96
aI59
aI85
aI80
aI16
aI2
aI43
aI63
aI62
aI89
aI98
aI11
aI54
aI9
aI17
aI17
aI72
aI18
aI56
aI73
aI34
aI20
aI13
aI83
aI29
aI69
aI20
aI79
aI27
aI63
aI75
aI68
aI99
aI34
aI96
aI92
aI7
aI79
aI61
aI89
aI99
aI7
aI28
aI42
aI52
aI20
aI75
aI65
aI91
aI45
aI91
aI97
aI42
aI58
aI63
aI87
aI56
aI0
aI92
aI1
aI57
aI58
aI75
aI2
aI89
aI6
aI56
aI93
aI62
aI88
aI3
aI57
aI17
aI100
aI99
aI58
aI0
aI72
aI5
aI49
aI83
aI3
aI96
aI31
aI32
aI35
aI24
aI9
aI87
aI49
aI12
aI54
aI78
aI43
aI43
aI55
aI85
a.