(lp0
I85
aI-89
aI-39
aI51
aI6
aI-6
aI-52
aI-90
aI96
aI62
aI54
aI-87
aI-83
aI38
aI-38
aI-88
aI67
aI80
aI-88
aI35
aI-6
aI-12
aI-82
aI-29
aI-27
aI-33
aI-69
aI39
aI-77
aI-42
aI47
aI-97
aI76
aI99
aI6
aI22
aI56
aI-77
aI-54
aI32
aI80
aI36
aI94
aI-70
aI-79
aI-66
aI-50
aI-23
aI43
aI4
aI-74
aI88
aI95
aI-57
aI83
aI58
aI75
aI-35
aI18
aI27
aI19
aI43
aI-15
aI96
aI-84
aI-100
aI45
aI-63
aI99
aI-67
aI-14
aI-56
aI-58
aI46
aI-34
aI-61
aI10
aI-88
aI-32
aI96
aI-54
aI32
aI-45
aI-98
aI-46
aI-83
aI8
aI-39
aI-57
aI-34
aI51
aI-27
aI-85
aI94
aI-48
aI-60
aI-86
aI20
aI-47
aI-47
a.